# SymbolsHelper-Confirmed: 5.12.2 amd64
libQt5DataVisualization.so.5 libqt5datavisualization5 #MINVER#
* Build-Depends-Package: libqt5datavisualization5-dev
 Qt_5.0@Qt_5.0 5.10.1
 Qt_5.10@Qt_5.10 5.10.1
 Qt_5.11@Qt_5.11 5.11.2
 Qt_5.12@Qt_5.12 5.12.0
 Qt_5.1@Qt_5.1 5.10.1
 Qt_5.2@Qt_5.2 5.10.1
 Qt_5.3@Qt_5.3 5.10.1
 Qt_5.4@Qt_5.4 5.10.1
 Qt_5.5@Qt_5.5 5.10.1
 Qt_5.6@Qt_5.6 5.10.1
 Qt_5.7@Qt_5.7 5.10.1
 Qt_5.8@Qt_5.8 5.10.1
 Qt_5.9@Qt_5.9 5.10.1
 Qt_5@Qt_5 5.10.1
 Qt_5_PRIVATE_API@Qt_5_PRIVATE_API 5.10.1
 _ZN19QtDataVisualization10Q3DScatter11qt_metacallEN11QMetaObject4CallEiPPv@Qt_5 5.10.1
 _ZN19QtDataVisualization10Q3DScatter11qt_metacastEPKc@Qt_5 5.10.1
 _ZN19QtDataVisualization10Q3DScatter11releaseAxisEPNS_12QValue3DAxisE@Qt_5 5.10.1
 _ZN19QtDataVisualization10Q3DScatter12axisXChangedEPNS_12QValue3DAxisE@Qt_5 5.10.1
 _ZN19QtDataVisualization10Q3DScatter12axisYChangedEPNS_12QValue3DAxisE@Qt_5 5.10.1
 _ZN19QtDataVisualization10Q3DScatter12axisZChangedEPNS_12QValue3DAxisE@Qt_5 5.10.1
 _ZN19QtDataVisualization10Q3DScatter12removeSeriesEPNS_16QScatter3DSeriesE@Qt_5 5.10.1
 _ZN19QtDataVisualization10Q3DScatter16staticMetaObjectE@Qt_5 5.10.1
 _ZN19QtDataVisualization10Q3DScatter21selectedSeriesChangedEPNS_16QScatter3DSeriesE@Qt_5 5.10.1
 _ZN19QtDataVisualization10Q3DScatter4dptrEv@Qt_5 5.10.1
 _ZN19QtDataVisualization10Q3DScatter7addAxisEPNS_12QValue3DAxisE@Qt_5 5.10.1
 _ZN19QtDataVisualization10Q3DScatter8setAxisXEPNS_12QValue3DAxisE@Qt_5 5.10.1
 _ZN19QtDataVisualization10Q3DScatter8setAxisYEPNS_12QValue3DAxisE@Qt_5 5.10.1
 _ZN19QtDataVisualization10Q3DScatter8setAxisZEPNS_12QValue3DAxisE@Qt_5 5.10.1
 _ZN19QtDataVisualization10Q3DScatter9addSeriesEPNS_16QScatter3DSeriesE@Qt_5 5.10.1
 _ZN19QtDataVisualization10Q3DScatterC1EPK14QSurfaceFormatP7QWindow@Qt_5 5.10.1
 _ZN19QtDataVisualization10Q3DScatterC2EPK14QSurfaceFormatP7QWindow@Qt_5 5.10.1
 _ZN19QtDataVisualization10Q3DScatterD0Ev@Qt_5 5.10.1
 _ZN19QtDataVisualization10Q3DScatterD1Ev@Qt_5 5.10.1
 _ZN19QtDataVisualization10Q3DScatterD2Ev@Qt_5 5.10.1
 _ZN19QtDataVisualization10Q3DSurface11qt_metacallEN11QMetaObject4CallEiPPv@Qt_5 5.10.1
 _ZN19QtDataVisualization10Q3DSurface11qt_metacastEPKc@Qt_5 5.10.1
 _ZN19QtDataVisualization10Q3DSurface11releaseAxisEPNS_12QValue3DAxisE@Qt_5 5.10.1
 _ZN19QtDataVisualization10Q3DSurface12axisXChangedEPNS_12QValue3DAxisE@Qt_5 5.10.1
 _ZN19QtDataVisualization10Q3DSurface12axisYChangedEPNS_12QValue3DAxisE@Qt_5 5.10.1
 _ZN19QtDataVisualization10Q3DSurface12axisZChangedEPNS_12QValue3DAxisE@Qt_5 5.10.1
 _ZN19QtDataVisualization10Q3DSurface12removeSeriesEPNS_16QSurface3DSeriesE@Qt_5 5.10.1
 _ZN19QtDataVisualization10Q3DSurface16staticMetaObjectE@Qt_5 5.10.1
 _ZN19QtDataVisualization10Q3DSurface21selectedSeriesChangedEPNS_16QSurface3DSeriesE@Qt_5 5.10.1
 _ZN19QtDataVisualization10Q3DSurface21setFlipHorizontalGridEb@Qt_5 5.10.1
 _ZN19QtDataVisualization10Q3DSurface25flipHorizontalGridChangedEb@Qt_5 5.10.1
 _ZN19QtDataVisualization10Q3DSurface4dptrEv@Qt_5 5.10.1
 _ZN19QtDataVisualization10Q3DSurface7addAxisEPNS_12QValue3DAxisE@Qt_5 5.10.1
 _ZN19QtDataVisualization10Q3DSurface8setAxisXEPNS_12QValue3DAxisE@Qt_5 5.10.1
 _ZN19QtDataVisualization10Q3DSurface8setAxisYEPNS_12QValue3DAxisE@Qt_5 5.10.1
 _ZN19QtDataVisualization10Q3DSurface8setAxisZEPNS_12QValue3DAxisE@Qt_5 5.10.1
 _ZN19QtDataVisualization10Q3DSurface9addSeriesEPNS_16QSurface3DSeriesE@Qt_5 5.10.1
 _ZN19QtDataVisualization10Q3DSurfaceC1EPK14QSurfaceFormatP7QWindow@Qt_5 5.10.1
 _ZN19QtDataVisualization10Q3DSurfaceC2EPK14QSurfaceFormatP7QWindow@Qt_5 5.10.1
 _ZN19QtDataVisualization10Q3DSurfaceD0Ev@Qt_5 5.10.1
 _ZN19QtDataVisualization10Q3DSurfaceD1Ev@Qt_5 5.10.1
 _ZN19QtDataVisualization10Q3DSurfaceD2Ev@Qt_5 5.10.1
 _ZN19QtDataVisualization12QBar3DSeries11qt_metacallEN11QMetaObject4CallEiPPv@Qt_5 5.10.1
 _ZN19QtDataVisualization12QBar3DSeries11qt_metacastEPKc@Qt_5 5.10.1
 _ZN19QtDataVisualization12QBar3DSeries12setDataProxyEPNS_13QBarDataProxyE@Qt_5 5.10.1
 _ZN19QtDataVisualization12QBar3DSeries12setMeshAngleEf@Qt_5 5.10.1
 _ZN19QtDataVisualization12QBar3DSeries14setSelectedBarERK6QPoint@Qt_5 5.10.1
 _ZN19QtDataVisualization12QBar3DSeries16dataProxyChangedEPNS_13QBarDataProxyE@Qt_5 5.10.1
 _ZN19QtDataVisualization12QBar3DSeries16meshAngleChangedEf@Qt_5 5.10.1
 _ZN19QtDataVisualization12QBar3DSeries16staticMetaObjectE@Qt_5 5.10.1
 _ZN19QtDataVisualization12QBar3DSeries18selectedBarChangedERK6QPoint@Qt_5 5.10.1
 _ZN19QtDataVisualization12QBar3DSeries24invalidSelectionPositionEv@Qt_5 5.10.1
 _ZN19QtDataVisualization12QBar3DSeries4dptrEv@Qt_5 5.10.1
 _ZN19QtDataVisualization12QBar3DSeriesC1EP7QObject@Qt_5 5.10.1
 _ZN19QtDataVisualization12QBar3DSeriesC1EPNS_13QBarDataProxyEP7QObject@Qt_5 5.10.1
 _ZN19QtDataVisualization12QBar3DSeriesC2EP7QObject@Qt_5 5.10.1
 _ZN19QtDataVisualization12QBar3DSeriesC2EPNS_13QBarDataProxyEP7QObject@Qt_5 5.10.1
 _ZN19QtDataVisualization12QBar3DSeriesD0Ev@Qt_5 5.10.1
 _ZN19QtDataVisualization12QBar3DSeriesD1Ev@Qt_5 5.10.1
 _ZN19QtDataVisualization12QBar3DSeriesD2Ev@Qt_5 5.10.1
 _ZN19QtDataVisualization12QBarDataItem15createExtraDataEv@Qt_5 5.10.1
 _ZN19QtDataVisualization12QBarDataItemC1ERKS0_@Qt_5 5.10.1
 _ZN19QtDataVisualization12QBarDataItemC1Ef@Qt_5 5.10.1
 _ZN19QtDataVisualization12QBarDataItemC1Eff@Qt_5 5.10.1
 _ZN19QtDataVisualization12QBarDataItemC1Ev@Qt_5 5.10.1
 _ZN19QtDataVisualization12QBarDataItemC2ERKS0_@Qt_5 5.10.1
 _ZN19QtDataVisualization12QBarDataItemC2Ef@Qt_5 5.10.1
 _ZN19QtDataVisualization12QBarDataItemC2Eff@Qt_5 5.10.1
 _ZN19QtDataVisualization12QBarDataItemC2Ev@Qt_5 5.10.1
 _ZN19QtDataVisualization12QBarDataItemD1Ev@Qt_5 5.10.1
 _ZN19QtDataVisualization12QBarDataItemD2Ev@Qt_5 5.10.1
 _ZN19QtDataVisualization12QBarDataItemaSERKS0_@Qt_5 5.10.1
 _ZN19QtDataVisualization12QValue3DAxis11qt_metacallEN11QMetaObject4CallEiPPv@Qt_5 5.10.1
 _ZN19QtDataVisualization12QValue3DAxis11qt_metacastEPKc@Qt_5 5.10.1
 _ZN19QtDataVisualization12QValue3DAxis11setReversedEb@Qt_5 5.10.1
 _ZN19QtDataVisualization12QValue3DAxis12setFormatterEPNS_21QValue3DAxisFormatterE@Qt_5 5.10.1
 _ZN19QtDataVisualization12QValue3DAxis14setLabelFormatERK7QString@Qt_5 5.10.1
 _ZN19QtDataVisualization12QValue3DAxis15reversedChangedEb@Qt_5 5.10.1
 _ZN19QtDataVisualization12QValue3DAxis15setSegmentCountEi@Qt_5 5.10.1
 _ZN19QtDataVisualization12QValue3DAxis16formatterChangedEPNS_21QValue3DAxisFormatterE@Qt_5 5.10.1
 _ZN19QtDataVisualization12QValue3DAxis16staticMetaObjectE@Qt_5 5.10.1
 _ZN19QtDataVisualization12QValue3DAxis18labelFormatChangedERK7QString@Qt_5 5.10.1
 _ZN19QtDataVisualization12QValue3DAxis18setSubSegmentCountEi@Qt_5 5.10.1
 _ZN19QtDataVisualization12QValue3DAxis19segmentCountChangedEi@Qt_5 5.10.1
 _ZN19QtDataVisualization12QValue3DAxis22subSegmentCountChangedEi@Qt_5 5.10.1
 _ZN19QtDataVisualization12QValue3DAxis4dptrEv@Qt_5 5.10.1
 _ZN19QtDataVisualization12QValue3DAxisC1EP7QObject@Qt_5 5.10.1
 _ZN19QtDataVisualization12QValue3DAxisC2EP7QObject@Qt_5 5.10.1
 _ZN19QtDataVisualization12QValue3DAxisD0Ev@Qt_5 5.10.1
 _ZN19QtDataVisualization12QValue3DAxisD1Ev@Qt_5 5.10.1
 _ZN19QtDataVisualization12QValue3DAxisD2Ev@Qt_5 5.10.1
 _ZN19QtDataVisualization13QBarDataProxy10arrayResetEv@Qt_5 5.10.1
 _ZN19QtDataVisualization13QBarDataProxy10insertRowsEiRK5QListIP7QVectorINS_12QBarDataItemEEE@Qt_5 5.10.1
 _ZN19QtDataVisualization13QBarDataProxy10insertRowsEiRK5QListIP7QVectorINS_12QBarDataItemEEERK11QStringList@Qt_5 5.10.1
 _ZN19QtDataVisualization13QBarDataProxy10removeRowsEiib@Qt_5 5.10.1
 _ZN19QtDataVisualization13QBarDataProxy10resetArrayEP5QListIP7QVectorINS_12QBarDataItemEEE@Qt_5 5.10.1
 _ZN19QtDataVisualization13QBarDataProxy10resetArrayEP5QListIP7QVectorINS_12QBarDataItemEEERK11QStringListSA_@Qt_5 5.10.1
 _ZN19QtDataVisualization13QBarDataProxy10resetArrayEv@Qt_5 5.10.1
 _ZN19QtDataVisualization13QBarDataProxy11itemChangedEii@Qt_5 5.10.1
 _ZN19QtDataVisualization13QBarDataProxy11qt_metacallEN11QMetaObject4CallEiPPv@Qt_5 5.10.1
 _ZN19QtDataVisualization13QBarDataProxy11qt_metacastEPKc@Qt_5 5.10.1
 _ZN19QtDataVisualization13QBarDataProxy11rowsChangedEii@Qt_5 5.10.1
 _ZN19QtDataVisualization13QBarDataProxy11rowsRemovedEii@Qt_5 5.10.1
 _ZN19QtDataVisualization13QBarDataProxy12rowsInsertedEii@Qt_5 5.10.1
 _ZN19QtDataVisualization13QBarDataProxy12setRowLabelsERK11QStringList@Qt_5 5.10.1
 _ZN19QtDataVisualization13QBarDataProxy13seriesChangedEPNS_12QBar3DSeriesE@Qt_5 5.10.1
 _ZN19QtDataVisualization13QBarDataProxy15rowCountChangedEi@Qt_5 5.10.1
 _ZN19QtDataVisualization13QBarDataProxy15setColumnLabelsERK11QStringList@Qt_5 5.10.1
 _ZN19QtDataVisualization13QBarDataProxy16rowLabelsChangedEv@Qt_5 5.10.1
 _ZN19QtDataVisualization13QBarDataProxy16staticMetaObjectE@Qt_5 5.10.1
 _ZN19QtDataVisualization13QBarDataProxy19columnLabelsChangedEv@Qt_5 5.10.1
 _ZN19QtDataVisualization13QBarDataProxy4dptrEv@Qt_5 5.10.1
 _ZN19QtDataVisualization13QBarDataProxy6addRowEP7QVectorINS_12QBarDataItemEE@Qt_5 5.10.1
 _ZN19QtDataVisualization13QBarDataProxy6addRowEP7QVectorINS_12QBarDataItemEERK7QString@Qt_5 5.10.1
 _ZN19QtDataVisualization13QBarDataProxy6setRowEiP7QVectorINS_12QBarDataItemEE@Qt_5 5.10.1
 _ZN19QtDataVisualization13QBarDataProxy6setRowEiP7QVectorINS_12QBarDataItemEERK7QString@Qt_5 5.10.1
 _ZN19QtDataVisualization13QBarDataProxy7addRowsERK5QListIP7QVectorINS_12QBarDataItemEEE@Qt_5 5.10.1
 _ZN19QtDataVisualization13QBarDataProxy7addRowsERK5QListIP7QVectorINS_12QBarDataItemEEERK11QStringList@Qt_5 5.10.1
 _ZN19QtDataVisualization13QBarDataProxy7setItemERK6QPointRKNS_12QBarDataItemE@Qt_5 5.10.1
 _ZN19QtDataVisualization13QBarDataProxy7setItemEiiRKNS_12QBarDataItemE@Qt_5 5.10.1
 _ZN19QtDataVisualization13QBarDataProxy7setRowsEiRK5QListIP7QVectorINS_12QBarDataItemEEE@Qt_5 5.10.1
 _ZN19QtDataVisualization13QBarDataProxy7setRowsEiRK5QListIP7QVectorINS_12QBarDataItemEEERK11QStringList@Qt_5 5.10.1
 _ZN19QtDataVisualization13QBarDataProxy9insertRowEiP7QVectorINS_12QBarDataItemEE@Qt_5 5.10.1
 _ZN19QtDataVisualization13QBarDataProxy9insertRowEiP7QVectorINS_12QBarDataItemEERK7QString@Qt_5 5.10.1
 _ZN19QtDataVisualization13QBarDataProxy9rowsAddedEii@Qt_5 5.10.1
 _ZN19QtDataVisualization13QBarDataProxyC1EP7QObject@Qt_5 5.10.1
 _ZN19QtDataVisualization13QBarDataProxyC1EPNS_20QBarDataProxyPrivateEP7QObject@Qt_5 5.10.1
 _ZN19QtDataVisualization13QBarDataProxyC2EP7QObject@Qt_5 5.10.1
 _ZN19QtDataVisualization13QBarDataProxyC2EPNS_20QBarDataProxyPrivateEP7QObject@Qt_5 5.10.1
 _ZN19QtDataVisualization13QBarDataProxyD0Ev@Qt_5 5.10.1
 _ZN19QtDataVisualization13QBarDataProxyD1Ev@Qt_5 5.10.1
 _ZN19QtDataVisualization13QBarDataProxyD2Ev@Qt_5 5.10.1
 _ZN19QtDataVisualization13QCustom3DItem10setScalingERK9QVector3D@Qt_5 5.10.1
 _ZN19QtDataVisualization13QCustom3DItem10setVisibleEb@Qt_5 5.10.1
 _ZN19QtDataVisualization13QCustom3DItem11qt_metacallEN11QMetaObject4CallEiPPv@Qt_5 5.10.1
 _ZN19QtDataVisualization13QCustom3DItem11qt_metacastEPKc@Qt_5 5.10.1
 _ZN19QtDataVisualization13QCustom3DItem11setMeshFileERK7QString@Qt_5 5.10.1
 _ZN19QtDataVisualization13QCustom3DItem11setPositionERK9QVector3D@Qt_5 5.10.1
 _ZN19QtDataVisualization13QCustom3DItem11setRotationERK11QQuaternion@Qt_5 5.10.1
 _ZN19QtDataVisualization13QCustom3DItem14scalingChangedERK9QVector3D@Qt_5 5.10.1
 _ZN19QtDataVisualization13QCustom3DItem14setTextureFileERK7QString@Qt_5 5.10.1
 _ZN19QtDataVisualization13QCustom3DItem14visibleChangedEb@Qt_5 5.10.1
 _ZN19QtDataVisualization13QCustom3DItem15meshFileChangedERK7QString@Qt_5 5.10.1
 _ZN19QtDataVisualization13QCustom3DItem15positionChangedERK9QVector3D@Qt_5 5.10.1
 _ZN19QtDataVisualization13QCustom3DItem15rotationChangedERK11QQuaternion@Qt_5 5.10.1
 _ZN19QtDataVisualization13QCustom3DItem15setTextureImageERK6QImage@Qt_5 5.10.1
 _ZN19QtDataVisualization13QCustom3DItem16setShadowCastingEb@Qt_5 5.10.1
 _ZN19QtDataVisualization13QCustom3DItem16staticMetaObjectE@Qt_5 5.10.1
 _ZN19QtDataVisualization13QCustom3DItem18setScalingAbsoluteEb@Qt_5 5.10.1
 _ZN19QtDataVisualization13QCustom3DItem18textureFileChangedERK7QString@Qt_5 5.10.1
 _ZN19QtDataVisualization13QCustom3DItem19setPositionAbsoluteEb@Qt_5 5.10.1
 _ZN19QtDataVisualization13QCustom3DItem20shadowCastingChangedEb@Qt_5 5.10.1
 _ZN19QtDataVisualization13QCustom3DItem22scalingAbsoluteChangedEb@Qt_5 5.10.1
 _ZN19QtDataVisualization13QCustom3DItem23positionAbsoluteChangedEb@Qt_5 5.10.1
 _ZN19QtDataVisualization13QCustom3DItem23setRotationAxisAndAngleERK9QVector3Df@Qt_5 5.10.1
 _ZN19QtDataVisualization13QCustom3DItem8rotationEv@Qt_5 5.10.1
 _ZN19QtDataVisualization13QCustom3DItemC1EP7QObject@Qt_5 5.10.1
 _ZN19QtDataVisualization13QCustom3DItemC1EPNS_20QCustom3DItemPrivateEP7QObject@Qt_5 5.10.1
 _ZN19QtDataVisualization13QCustom3DItemC1ERK7QStringRK9QVector3DS6_RK11QQuaternionRK6QImageP7QObject@Qt_5 5.10.1
 _ZN19QtDataVisualization13QCustom3DItemC2EP7QObject@Qt_5 5.10.1
 _ZN19QtDataVisualization13QCustom3DItemC2EPNS_20QCustom3DItemPrivateEP7QObject@Qt_5 5.10.1
 _ZN19QtDataVisualization13QCustom3DItemC2ERK7QStringRK9QVector3DS6_RK11QQuaternionRK6QImageP7QObject@Qt_5 5.10.1
 _ZN19QtDataVisualization13QCustom3DItemD0Ev@Qt_5 5.10.1
 _ZN19QtDataVisualization13QCustom3DItemD1Ev@Qt_5 5.10.1
 _ZN19QtDataVisualization13QCustom3DItemD2Ev@Qt_5 5.10.1
 _ZN19QtDataVisualization14Bars3DRenderer10drawLabelsEbPKNS_9Q3DCameraERK10QMatrix4x4S6_@Qt_5 5.10.1
 _ZN19QtDataVisualization14Bars3DRenderer10isSelectedEiiPKNS_20BarSeriesRenderCacheE@Qt_5 5.10.1
 _ZN19QtDataVisualization14Bars3DRenderer10updateDataEv@Qt_5 5.10.1
 _ZN19QtDataVisualization14Bars3DRenderer10updateRowsERK7QVectorINS_16Bars3DController9ChangeRowEE@Qt_5 5.10.1
 _ZN19QtDataVisualization14Bars3DRenderer11initShadersERK7QStringS3_@Qt_5 5.10.1
 _ZN19QtDataVisualization14Bars3DRenderer11qt_metacallEN11QMetaObject4CallEiPPv@Qt_5 5.10.1
 _ZN19QtDataVisualization14Bars3DRenderer11qt_metacastEPKc@Qt_5 5.10.1
 _ZN19QtDataVisualization14Bars3DRenderer11updateItemsERK7QVectorINS_16Bars3DController10ChangeItemEE@Qt_5 5.10.1
 _ZN19QtDataVisualization14Bars3DRenderer11updateSceneEPNS_8Q3DSceneE@Qt_5 5.10.1
 _ZN19QtDataVisualization14Bars3DRenderer12updateMarginEf@Qt_5 5.10.1
 _ZN19QtDataVisualization14Bars3DRenderer12updateSeriesERK5QListIPNS_17QAbstract3DSeriesEE@Qt_5 5.10.1
 _ZN19QtDataVisualization14Bars3DRenderer13drawGridLinesERK10QMatrix4x4S3_S3_@Qt_5 5.10.1
 _ZN19QtDataVisualization14Bars3DRenderer14createNewCacheEPNS_17QAbstract3DSeriesE@Qt_5 5.10.1
 _ZN19QtDataVisualization14Bars3DRenderer14drawBackgroundEfRK10QMatrix4x4S3_S3_bb@Qt_5 5.10.1
 _ZN19QtDataVisualization14Bars3DRenderer14updateBarSpecsEfRK6QSizeFb@Qt_5 5.10.1
 _ZN19QtDataVisualization14Bars3DRenderer14updateTexturesEv@Qt_5 5.10.1
 _ZN19QtDataVisualization14Bars3DRenderer15drawSlicedSceneEv@Qt_5 5.10.1
 _ZN19QtDataVisualization14Bars3DRenderer15fixCameraTargetER9QVector3D@Qt_5 5.10.1
 _ZN19QtDataVisualization14Bars3DRenderer15fixMeshFileNameER7QStringNS_17QAbstract3DSeries4MeshE@Qt_5 5.10.1
 _ZN19QtDataVisualization14Bars3DRenderer15initDepthShaderEv@Qt_5 5.10.1
 _ZN19QtDataVisualization14Bars3DRenderer15updateAxisRangeENS_15QAbstract3DAxis15AxisOrientationEff@Qt_5 5.10.1
 _ZN19QtDataVisualization14Bars3DRenderer16initializeOpenGLEv@Qt_5 5.10.1
 _ZN19QtDataVisualization14Bars3DRenderer16staticMetaObjectE@Qt_5 5.10.1
 _ZN19QtDataVisualization14Bars3DRenderer16updateFloorLevelEf@Qt_5 5.10.1
 _ZN19QtDataVisualization14Bars3DRenderer17updateAspectRatioEf@Qt_5 5.10.1
 _ZN19QtDataVisualization14Bars3DRenderer17updateDepthBufferEv@Qt_5 5.10.1
 _ZN19QtDataVisualization14Bars3DRenderer17updateSelectedBarERK6QPointPNS_12QBar3DSeriesE@Qt_5 5.10.1
 _ZN19QtDataVisualization14Bars3DRenderer18loadBackgroundMeshEv@Qt_5 5.10.1
 _ZN19QtDataVisualization14Bars3DRenderer18resetClickedStatusEv@Qt_5 5.10.1
 _ZN19QtDataVisualization14Bars3DRenderer18updateAxisReversedENS_15QAbstract3DAxis15AxisOrientationEb@Qt_5 5.10.1
 _ZN19QtDataVisualization14Bars3DRenderer19initGradientShadersERK7QStringS3_@Qt_5 5.10.1
 _ZN19QtDataVisualization14Bars3DRenderer19initSelectionBufferEv@Qt_5 5.10.1
 _ZN19QtDataVisualization14Bars3DRenderer19initSelectionShaderEv@Qt_5 5.10.1
 _ZN19QtDataVisualization14Bars3DRenderer19updateShadowQualityENS_16QAbstract3DGraph13ShadowQualityE@Qt_5 5.10.1
 _ZN19QtDataVisualization14Bars3DRenderer19updateSlicingActiveEb@Qt_5 5.10.1
 _ZN19QtDataVisualization14Bars3DRenderer20getVisibleItemBoundsER9QVector3DS2_@Qt_5 5.10.1
 _ZN19QtDataVisualization14Bars3DRenderer21initBackgroundShadersERK7QStringS3_@Qt_5 5.10.1
 _ZN19QtDataVisualization14Bars3DRenderer22selectionColorToSeriesERK9QVector4D@Qt_5 5.10.1
 _ZN19QtDataVisualization14Bars3DRenderer24updateMultiSeriesScalingEb@Qt_5 5.10.1
 _ZN19QtDataVisualization14Bars3DRenderer25calculateHeightAdjustmentEv@Qt_5 5.10.1
 _ZN19QtDataVisualization14Bars3DRenderer28calculateSceneScalingFactorsEv@Qt_5 5.10.1
 _ZN19QtDataVisualization14Bars3DRenderer28convertPositionToTranslationERK9QVector3Db@Qt_5 5.10.1
 _ZN19QtDataVisualization14Bars3DRenderer29selectionColorToArrayPositionERK9QVector4D@Qt_5 5.10.1
 _ZN19QtDataVisualization14Bars3DRenderer6renderEj@Qt_5 5.10.1
 _ZN19QtDataVisualization14Bars3DRenderer8drawBarsEPPNS_13BarRenderItemERK10QMatrix4x4S6_S6_iiiiiif@Qt_5 5.10.1
 _ZN19QtDataVisualization14Bars3DRenderer9drawSceneEj@Qt_5 5.10.1
 _ZN19QtDataVisualization14Bars3DRendererC1EPNS_16Bars3DControllerE@Qt_5 5.10.1
 _ZN19QtDataVisualization14Bars3DRendererC2EPNS_16Bars3DControllerE@Qt_5 5.10.1
 _ZN19QtDataVisualization14Bars3DRendererD0Ev@Qt_5 5.10.1
 _ZN19QtDataVisualization14Bars3DRendererD1Ev@Qt_5 5.10.1
 _ZN19QtDataVisualization14Bars3DRendererD2Ev@Qt_5 5.10.1
 _ZN19QtDataVisualization14QCustom3DLabel11fontChangedERK5QFont@Qt_5 5.10.1
 _ZN19QtDataVisualization14QCustom3DLabel11qt_metacallEN11QMetaObject4CallEiPPv@Qt_5 5.10.1
 _ZN19QtDataVisualization14QCustom3DLabel11qt_metacastEPKc@Qt_5 5.10.1
 _ZN19QtDataVisualization14QCustom3DLabel11textChangedERK7QString@Qt_5 5.10.1
 _ZN19QtDataVisualization14QCustom3DLabel12setTextColorERK6QColor@Qt_5 5.10.1
 _ZN19QtDataVisualization14QCustom3DLabel15setFacingCameraEb@Qt_5 5.10.1
 _ZN19QtDataVisualization14QCustom3DLabel16setBorderEnabledEb@Qt_5 5.10.1
 _ZN19QtDataVisualization14QCustom3DLabel16staticMetaObjectE@Qt_5 5.10.1
 _ZN19QtDataVisualization14QCustom3DLabel16textColorChangedERK6QColor@Qt_5 5.10.1
 _ZN19QtDataVisualization14QCustom3DLabel18setBackgroundColorERK6QColor@Qt_5 5.10.1
 _ZN19QtDataVisualization14QCustom3DLabel19facingCameraChangedEb@Qt_5 5.10.1
 _ZN19QtDataVisualization14QCustom3DLabel20borderEnabledChangedEb@Qt_5 5.10.1
 _ZN19QtDataVisualization14QCustom3DLabel20setBackgroundEnabledEb@Qt_5 5.10.1
 _ZN19QtDataVisualization14QCustom3DLabel22backgroundColorChangedERK6QColor@Qt_5 5.10.1
 _ZN19QtDataVisualization14QCustom3DLabel24backgroundEnabledChangedEb@Qt_5 5.10.1
 _ZN19QtDataVisualization14QCustom3DLabel4dptrEv@Qt_5 5.10.1
 _ZN19QtDataVisualization14QCustom3DLabel7setFontERK5QFont@Qt_5 5.10.1
 _ZN19QtDataVisualization14QCustom3DLabel7setTextERK7QString@Qt_5 5.10.1
 _ZN19QtDataVisualization14QCustom3DLabelC1EP7QObject@Qt_5 5.10.1
 _ZN19QtDataVisualization14QCustom3DLabelC1ERK7QStringRK5QFontRK9QVector3DS9_RK11QQuaternionP7QObject@Qt_5 5.10.1
 _ZN19QtDataVisualization14QCustom3DLabelC2EP7QObject@Qt_5 5.10.1
 _ZN19QtDataVisualization14QCustom3DLabelC2ERK7QStringRK5QFontRK9QVector3DS9_RK11QQuaternionP7QObject@Qt_5 5.10.1
 _ZN19QtDataVisualization14QCustom3DLabelD0Ev@Qt_5 5.10.1
 _ZN19QtDataVisualization14QCustom3DLabelD1Ev@Qt_5 5.10.1
 _ZN19QtDataVisualization14QCustom3DLabelD2Ev@Qt_5 5.10.1
 _ZN19QtDataVisualization15Q3DInputHandler10wheelEventEP11QWheelEvent@Qt_5 5.10.1
 _ZN19QtDataVisualization15Q3DInputHandler11qt_metacallEN11QMetaObject4CallEiPPv@Qt_5 5.10.1
 _ZN19QtDataVisualization15Q3DInputHandler11qt_metacastEPKc@Qt_5 5.10.1
 _ZN19QtDataVisualization15Q3DInputHandler14mouseMoveEventEP11QMouseEventRK6QPoint@Qt_5 5.10.1
 _ZN19QtDataVisualization15Q3DInputHandler14setZoomEnabledEb@Qt_5 5.10.1
 _ZN19QtDataVisualization15Q3DInputHandler15mousePressEventEP11QMouseEventRK6QPoint@Qt_5 5.10.1
 _ZN19QtDataVisualization15Q3DInputHandler16staticMetaObjectE@Qt_5 5.10.1
 _ZN19QtDataVisualization15Q3DInputHandler17mouseReleaseEventEP11QMouseEventRK6QPoint@Qt_5 5.10.1
 _ZN19QtDataVisualization15Q3DInputHandler18setRotationEnabledEb@Qt_5 5.10.1
 _ZN19QtDataVisualization15Q3DInputHandler18zoomEnabledChangedEb@Qt_5 5.10.1
 _ZN19QtDataVisualization15Q3DInputHandler19setSelectionEnabledEb@Qt_5 5.10.1
 _ZN19QtDataVisualization15Q3DInputHandler22rotationEnabledChangedEb@Qt_5 5.10.1
 _ZN19QtDataVisualization15Q3DInputHandler22setZoomAtTargetEnabledEb@Qt_5 5.10.1
 _ZN19QtDataVisualization15Q3DInputHandler23selectionEnabledChangedEb@Qt_5 5.10.1
 _ZN19QtDataVisualization15Q3DInputHandler26zoomAtTargetEnabledChangedEb@Qt_5 5.10.1
 _ZN19QtDataVisualization15Q3DInputHandlerC1EP7QObject@Qt_5 5.10.1
 _ZN19QtDataVisualization15Q3DInputHandlerC2EP7QObject@Qt_5 5.10.1
 _ZN19QtDataVisualization15Q3DInputHandlerD0Ev@Qt_5 5.10.1
 _ZN19QtDataVisualization15Q3DInputHandlerD1Ev@Qt_5 5.10.1
 _ZN19QtDataVisualization15Q3DInputHandlerD2Ev@Qt_5 5.10.1
 _ZN19QtDataVisualization15Q3DScenePrivate10glViewportEv@Qt_5 5.10.1
 _ZN19QtDataVisualization15Q3DScenePrivate10needRenderEv@Qt_5 5.10.1
 _ZN19QtDataVisualization15Q3DScenePrivate11qt_metacallEN11QMetaObject4CallEiPPv@Qt_5 5.10.1
 _ZN19QtDataVisualization15Q3DScenePrivate11qt_metacastEPKc@Qt_5 5.10.1
 _ZN19QtDataVisualization15Q3DScenePrivate11setViewportERK5QRect@Qt_5 5.10.1
 _ZN19QtDataVisualization15Q3DScenePrivate13setWindowSizeERK5QSize@Qt_5 5.10.1
 _ZN19QtDataVisualization15Q3DScenePrivate15setViewportSizeEii@Qt_5 5.10.1
 _ZN19QtDataVisualization15Q3DScenePrivate16staticMetaObjectE@Qt_5 5.10.1
 _ZN19QtDataVisualization15Q3DScenePrivate16updateGLViewportEv@Qt_5 5.10.1
 _ZN19QtDataVisualization15Q3DScenePrivate20glPrimarySubViewportEv@Qt_5 5.10.1
 _ZN19QtDataVisualization15Q3DScenePrivate20updateGLSubViewportsEv@Qt_5 5.10.1
 _ZN19QtDataVisualization15Q3DScenePrivate21calculateSubViewportsEv@Qt_5 5.10.1
 _ZN19QtDataVisualization15Q3DScenePrivate22glSecondarySubViewportEv@Qt_5 5.10.1
 _ZN19QtDataVisualization15Q3DScenePrivate32setLightPositionRelativeToCameraERK9QVector3Dff@Qt_5 5.10.1
 _ZN19QtDataVisualization15Q3DScenePrivate4syncERS0_@Qt_5 5.10.1
 _ZN19QtDataVisualization15Q3DScenePrivate9markDirtyEv@Qt_5 5.10.1
 _ZN19QtDataVisualization15Q3DScenePrivateC1EPNS_8Q3DSceneE@Qt_5 5.10.1
 _ZN19QtDataVisualization15Q3DScenePrivateC2EPNS_8Q3DSceneE@Qt_5 5.10.1
 _ZN19QtDataVisualization15Q3DScenePrivateD0Ev@Qt_5 5.10.1
 _ZN19QtDataVisualization15Q3DScenePrivateD1Ev@Qt_5 5.10.1
 _ZN19QtDataVisualization15Q3DScenePrivateD2Ev@Qt_5 5.10.1
 _ZN19QtDataVisualization15Q3DThemePrivate10needRenderEv@Qt_5 5.10.1
 _ZN19QtDataVisualization15Q3DThemePrivate11qt_metacallEN11QMetaObject4CallEiPPv@Qt_5 5.10.1
 _ZN19QtDataVisualization15Q3DThemePrivate11qt_metacastEPKc@Qt_5 5.10.1
 _ZN19QtDataVisualization15Q3DThemePrivate14resetDirtyBitsEv@Qt_5 5.10.1
 _ZN19QtDataVisualization15Q3DThemePrivate16staticMetaObjectE@Qt_5 5.10.1
 _ZN19QtDataVisualization15Q3DThemePrivate4syncERS0_@Qt_5 5.10.1
 _ZN19QtDataVisualization15Q3DThemePrivateC1EPNS_8Q3DThemeE@Qt_5 5.10.1
 _ZN19QtDataVisualization15Q3DThemePrivateC2EPNS_8Q3DThemeE@Qt_5 5.10.1
 _ZN19QtDataVisualization15Q3DThemePrivateD0Ev@Qt_5 5.10.1
 _ZN19QtDataVisualization15Q3DThemePrivateD1Ev@Qt_5 5.10.1
 _ZN19QtDataVisualization15Q3DThemePrivateD2Ev@Qt_5 5.10.1
 _ZN19QtDataVisualization15QAbstract3DAxis10maxChangedEf@Qt_5 5.10.1
 _ZN19QtDataVisualization15QAbstract3DAxis10minChangedEf@Qt_5 5.10.1
 _ZN19QtDataVisualization15QAbstract3DAxis11qt_metacallEN11QMetaObject4CallEiPPv@Qt_5 5.10.1
 _ZN19QtDataVisualization15QAbstract3DAxis11qt_metacastEPKc@Qt_5 5.10.1
 _ZN19QtDataVisualization15QAbstract3DAxis12rangeChangedEff@Qt_5 5.10.1
 _ZN19QtDataVisualization15QAbstract3DAxis12titleChangedERK7QString@Qt_5 5.10.1
 _ZN19QtDataVisualization15QAbstract3DAxis13labelsChangedEv@Qt_5 5.10.1
 _ZN19QtDataVisualization15QAbstract3DAxis13setTitleFixedEb@Qt_5 5.10.1
 _ZN19QtDataVisualization15QAbstract3DAxis15setTitleVisibleEb@Qt_5 5.10.1
 _ZN19QtDataVisualization15QAbstract3DAxis16staticMetaObjectE@Qt_5 5.10.1
 _ZN19QtDataVisualization15QAbstract3DAxis17titleFixedChangedEb@Qt_5 5.10.1
 _ZN19QtDataVisualization15QAbstract3DAxis18orientationChangedENS0_15AxisOrientationE@Qt_5 5.10.1
 _ZN19QtDataVisualization15QAbstract3DAxis18setAutoAdjustRangeEb@Qt_5 5.10.1
 _ZN19QtDataVisualization15QAbstract3DAxis20setLabelAutoRotationEf@Qt_5 5.10.1
 _ZN19QtDataVisualization15QAbstract3DAxis22autoAdjustRangeChangedEb@Qt_5 5.10.1
 _ZN19QtDataVisualization15QAbstract3DAxis22titleVisibilityChangedEb@Qt_5 5.10.1
 _ZN19QtDataVisualization15QAbstract3DAxis24labelAutoRotationChangedEf@Qt_5 5.10.1
 _ZN19QtDataVisualization15QAbstract3DAxis6setMaxEf@Qt_5 5.10.1
 _ZN19QtDataVisualization15QAbstract3DAxis6setMinEf@Qt_5 5.10.1
 _ZN19QtDataVisualization15QAbstract3DAxis8setRangeEff@Qt_5 5.10.1
 _ZN19QtDataVisualization15QAbstract3DAxis8setTitleERK7QString@Qt_5 5.10.1
 _ZN19QtDataVisualization15QAbstract3DAxis9setLabelsERK11QStringList@Qt_5 5.10.1
 _ZN19QtDataVisualization15QAbstract3DAxisC1EPNS_22QAbstract3DAxisPrivateEP7QObject@Qt_5 5.10.1
 _ZN19QtDataVisualization15QAbstract3DAxisC2EPNS_22QAbstract3DAxisPrivateEP7QObject@Qt_5 5.10.1
 _ZN19QtDataVisualization15QAbstract3DAxisD0Ev@Qt_5 5.10.1
 _ZN19QtDataVisualization15QAbstract3DAxisD1Ev@Qt_5 5.10.1
 _ZN19QtDataVisualization15QAbstract3DAxisD2Ev@Qt_5 5.10.1
 _ZN19QtDataVisualization15QCategory3DAxis11qt_metacallEN11QMetaObject4CallEiPPv@Qt_5 5.10.1
 _ZN19QtDataVisualization15QCategory3DAxis11qt_metacastEPKc@Qt_5 5.10.1
 _ZN19QtDataVisualization15QCategory3DAxis13labelsChangedEv@Qt_5 5.10.1
 _ZN19QtDataVisualization15QCategory3DAxis16staticMetaObjectE@Qt_5 5.10.1
 _ZN19QtDataVisualization15QCategory3DAxis4dptrEv@Qt_5 5.10.1
 _ZN19QtDataVisualization15QCategory3DAxis9setLabelsERK11QStringList@Qt_5 5.10.1
 _ZN19QtDataVisualization15QCategory3DAxisC1EP7QObject@Qt_5 5.10.1
 _ZN19QtDataVisualization15QCategory3DAxisC2EP7QObject@Qt_5 5.10.1
 _ZN19QtDataVisualization15QCategory3DAxisD0Ev@Qt_5 5.10.1
 _ZN19QtDataVisualization15QCategory3DAxisD1Ev@Qt_5 5.10.1
 _ZN19QtDataVisualization15QCategory3DAxisD2Ev@Qt_5 5.10.1
 _ZN19QtDataVisualization15QCustom3DVolume11qt_metacallEN11QMetaObject4CallEiPPv@Qt_5 5.10.1
 _ZN19QtDataVisualization15QCustom3DVolume11qt_metacastEPKc@Qt_5 5.10.1
 _ZN19QtDataVisualization15QCustom3DVolume11renderSliceEN2Qt4AxisEi@Qt_5 5.10.1
 _ZN19QtDataVisualization15QCustom3DVolume13setColorTableERK7QVectorIjE@Qt_5 5.10.1
 _ZN19QtDataVisualization15QCustom3DVolume13setDrawSlicesEb@Qt_5 5.10.1
 _ZN19QtDataVisualization15QCustom3DVolume14setSliceIndexXEi@Qt_5 5.10.1
 _ZN19QtDataVisualization15QCustom3DVolume14setSliceIndexYEi@Qt_5 5.10.1
 _ZN19QtDataVisualization15QCustom3DVolume14setSliceIndexZEi@Qt_5 5.10.1
 _ZN19QtDataVisualization15QCustom3DVolume14setTextureDataEP7QVectorIhE@Qt_5 5.10.1
 _ZN19QtDataVisualization15QCustom3DVolume15setSliceIndicesEiii@Qt_5 5.10.1
 _ZN19QtDataVisualization15QCustom3DVolume15setTextureDepthEi@Qt_5 5.10.1
 _ZN19QtDataVisualization15QCustom3DVolume15setTextureWidthEi@Qt_5 5.10.1
 _ZN19QtDataVisualization15QCustom3DVolume16setTextureFormatEN6QImage6FormatE@Qt_5 5.10.1
 _ZN19QtDataVisualization15QCustom3DVolume16setTextureHeightEi@Qt_5 5.10.1
 _ZN19QtDataVisualization15QCustom3DVolume16staticMetaObjectE@Qt_5 5.10.1
 _ZN19QtDataVisualization15QCustom3DVolume17colorTableChangedEv@Qt_5 5.10.1
 _ZN19QtDataVisualization15QCustom3DVolume17createTextureDataERK7QVectorIP6QImageE@Qt_5 5.10.1
 _ZN19QtDataVisualization15QCustom3DVolume17drawSlicesChangedEb@Qt_5 5.10.1
 _ZN19QtDataVisualization15QCustom3DVolume17setSliceFrameGapsERK9QVector3D@Qt_5 5.10.1
 _ZN19QtDataVisualization15QCustom3DVolume17setSubTextureDataEN2Qt4AxisEiPKh@Qt_5 5.10.1
 _ZN19QtDataVisualization15QCustom3DVolume17setSubTextureDataEN2Qt4AxisEiRK6QImage@Qt_5 5.10.1
 _ZN19QtDataVisualization15QCustom3DVolume18setAlphaMultiplierEf@Qt_5 5.10.1
 _ZN19QtDataVisualization15QCustom3DVolume18setDrawSliceFramesEb@Qt_5 5.10.1
 _ZN19QtDataVisualization15QCustom3DVolume18setPreserveOpacityEb@Qt_5 5.10.1
 _ZN19QtDataVisualization15QCustom3DVolume18setSliceFrameColorERK6QColor@Qt_5 5.10.1
 _ZN19QtDataVisualization15QCustom3DVolume18sliceIndexXChangedEi@Qt_5 5.10.1
 _ZN19QtDataVisualization15QCustom3DVolume18sliceIndexYChangedEi@Qt_5 5.10.1
 _ZN19QtDataVisualization15QCustom3DVolume18sliceIndexZChangedEi@Qt_5 5.10.1
 _ZN19QtDataVisualization15QCustom3DVolume18textureDataChangedEP7QVectorIhE@Qt_5 5.10.1
 _ZN19QtDataVisualization15QCustom3DVolume19setSliceFrameWidthsERK9QVector3D@Qt_5 5.10.1
 _ZN19QtDataVisualization15QCustom3DVolume19setUseHighDefShaderEb@Qt_5 5.10.1
 _ZN19QtDataVisualization15QCustom3DVolume19textureDepthChangedEi@Qt_5 5.10.1
 _ZN19QtDataVisualization15QCustom3DVolume19textureWidthChangedEi@Qt_5 5.10.1
 _ZN19QtDataVisualization15QCustom3DVolume20setTextureDimensionsEiii@Qt_5 5.10.1
 _ZN19QtDataVisualization15QCustom3DVolume20textureFormatChangedEN6QImage6FormatE@Qt_5 5.10.1
 _ZN19QtDataVisualization15QCustom3DVolume20textureHeightChangedEi@Qt_5 5.10.1
 _ZN19QtDataVisualization15QCustom3DVolume21sliceFrameGapsChangedERK9QVector3D@Qt_5 5.10.1
 _ZN19QtDataVisualization15QCustom3DVolume22alphaMultiplierChangedEf@Qt_5 5.10.1
 _ZN19QtDataVisualization15QCustom3DVolume22drawSliceFramesChangedEb@Qt_5 5.10.1
 _ZN19QtDataVisualization15QCustom3DVolume22preserveOpacityChangedEb@Qt_5 5.10.1
 _ZN19QtDataVisualization15QCustom3DVolume22sliceFrameColorChangedERK6QColor@Qt_5 5.10.1
 _ZN19QtDataVisualization15QCustom3DVolume23sliceFrameWidthsChangedERK9QVector3D@Qt_5 5.10.1
 _ZN19QtDataVisualization15QCustom3DVolume23useHighDefShaderChangedEb@Qt_5 5.10.1
 _ZN19QtDataVisualization15QCustom3DVolume24setSliceFrameThicknessesERK9QVector3D@Qt_5 5.10.1
 _ZN19QtDataVisualization15QCustom3DVolume28sliceFrameThicknessesChangedERK9QVector3D@Qt_5 5.10.1
 _ZN19QtDataVisualization15QCustom3DVolume4dptrEv@Qt_5 5.10.1
 _ZN19QtDataVisualization15QCustom3DVolumeC1EP7QObject@Qt_5 5.10.1
 _ZN19QtDataVisualization15QCustom3DVolumeC1ERK9QVector3DS3_RK11QQuaternioniiiP7QVectorIhEN6QImage6FormatERKS7_IjEP7QObject@Qt_5 5.10.1
 _ZN19QtDataVisualization15QCustom3DVolumeC2EP7QObject@Qt_5 5.10.1
 _ZN19QtDataVisualization15QCustom3DVolumeC2ERK9QVector3DS3_RK11QQuaternioniiiP7QVectorIhEN6QImage6FormatERKS7_IjEP7QObject@Qt_5 5.10.1
 _ZN19QtDataVisualization15QCustom3DVolumeD0Ev@Qt_5 5.10.1
 _ZN19QtDataVisualization15QCustom3DVolumeD1Ev@Qt_5 5.10.1
 _ZN19QtDataVisualization15QCustom3DVolumeD2Ev@Qt_5 5.10.1
 _ZN19QtDataVisualization16Bars3DController10barSpacingEv@Qt_5 5.10.1
 _ZN19QtDataVisualization16Bars3DController11qt_metacallEN11QMetaObject4CallEiPPv@Qt_5 5.10.1
 _ZN19QtDataVisualization16Bars3DController11qt_metacastEPKc@Qt_5 5.10.1
 _ZN19QtDataVisualization16Bars3DController11setBarSpecsEfRK6QSizeFb@Qt_5 5.10.1
 _ZN19QtDataVisualization16Bars3DController12barThicknessEv@Qt_5 5.10.1
 _ZN19QtDataVisualization16Bars3DController12insertSeriesEiPNS_17QAbstract3DSeriesE@Qt_5 5.10.1
 _ZN19QtDataVisualization16Bars3DController12removeSeriesEPNS_17QAbstract3DSeriesE@Qt_5 5.10.1
 _ZN19QtDataVisualization16Bars3DController13barSeriesListEv@Qt_5 5.10.1
 _ZN19QtDataVisualization16Bars3DController13setFloorLevelEf@Qt_5 5.10.1
 _ZN19QtDataVisualization16Bars3DController14clearSelectionEv@Qt_5 5.10.1
 _ZN19QtDataVisualization16Bars3DController14setSelectedBarERK6QPointPNS_12QBar3DSeriesEb@Qt_5 5.10.1
 _ZN19QtDataVisualization16Bars3DController15handleRowsAddedEii@Qt_5 5.10.1
 _ZN19QtDataVisualization16Bars3DController16adjustAxisRangesEv@Qt_5 5.10.1
 _ZN19QtDataVisualization16Bars3DController16handleArrayResetEv@Qt_5 5.10.1
 _ZN19QtDataVisualization16Bars3DController16initializeOpenGLEv@Qt_5 5.10.1
 _ZN19QtDataVisualization16Bars3DController16setPrimarySeriesEPNS_12QBar3DSeriesE@Qt_5 5.10.1
 _ZN19QtDataVisualization16Bars3DController16setSelectionModeE6QFlagsINS_16QAbstract3DGraph13SelectionFlagEE@Qt_5 5.10.1
 _ZN19QtDataVisualization16Bars3DController16staticMetaObjectE@Qt_5 5.10.1
 _ZN19QtDataVisualization16Bars3DController17createDefaultAxisENS_15QAbstract3DAxis15AxisOrientationE@Qt_5 5.10.1
 _ZN19QtDataVisualization16Bars3DController17handleItemChangedEii@Qt_5 5.10.1
 _ZN19QtDataVisualization16Bars3DController17handleRowsChangedEii@Qt_5 5.10.1
 _ZN19QtDataVisualization16Bars3DController17handleRowsRemovedEii@Qt_5 5.10.1
 _ZN19QtDataVisualization16Bars3DController17isBarSpecRelativeEv@Qt_5 5.10.1
 _ZN19QtDataVisualization16Bars3DController18handlePendingClickEv@Qt_5 5.10.1
 _ZN19QtDataVisualization16Bars3DController18handleRowsInsertedEii@Qt_5 5.10.1
 _ZN19QtDataVisualization16Bars3DController19synchDataToRendererEv@Qt_5 5.10.1
 _ZN19QtDataVisualization16Bars3DController20primarySeriesChangedEPNS_12QBar3DSeriesE@Qt_5 5.10.1
 _ZN19QtDataVisualization16Bars3DController21selectedSeriesChangedEPNS_12QBar3DSeriesE@Qt_5 5.10.1
 _ZN19QtDataVisualization16Bars3DController21setMultiSeriesScalingEb@Qt_5 5.10.1
 _ZN19QtDataVisualization16Bars3DController23adjustSelectionPositionER6QPointPKNS_12QBar3DSeriesE@Qt_5 5.10.1
 _ZN19QtDataVisualization16Bars3DController24invalidSelectionPositionEv@Qt_5 5.10.1
 _ZN19QtDataVisualization16Bars3DController26handleDataRowLabelsChangedEv@Qt_5 5.10.1
 _ZN19QtDataVisualization16Bars3DController29handleDataColumnLabelsChangedEv@Qt_5 5.10.1
 _ZN19QtDataVisualization16Bars3DController30handleAxisRangeChangedBySenderEP7QObject@Qt_5 5.10.1
 _ZN19QtDataVisualization16Bars3DController37handleSeriesVisibilityChangedBySenderEP7QObject@Qt_5 5.10.1
 _ZN19QtDataVisualization16Bars3DController45handleAxisAutoAdjustRangeChangedInOrientationENS_15QAbstract3DAxis15AxisOrientationEb@Qt_5 5.10.1
 _ZN19QtDataVisualization16Bars3DController8setAxisXEPNS_15QAbstract3DAxisE@Qt_5 5.10.1
 _ZN19QtDataVisualization16Bars3DController8setAxisZEPNS_15QAbstract3DAxisE@Qt_5 5.10.1
 _ZN19QtDataVisualization16Bars3DController9addSeriesEPNS_17QAbstract3DSeriesE@Qt_5 5.10.1
 _ZN19QtDataVisualization16Bars3DControllerC1E5QRectPNS_8Q3DSceneE@Qt_5 5.10.1
 _ZN19QtDataVisualization16Bars3DControllerC2E5QRectPNS_8Q3DSceneE@Qt_5 5.10.1
 _ZN19QtDataVisualization16Bars3DControllerD0Ev@Qt_5 5.10.1
 _ZN19QtDataVisualization16Bars3DControllerD1Ev@Qt_5 5.10.1
 _ZN19QtDataVisualization16Bars3DControllerD2Ev@Qt_5 5.10.1
 _ZN19QtDataVisualization16QAbstract3DGraph10touchEventEP11QTouchEvent@Qt_5 5.10.1
 _ZN19QtDataVisualization16QAbstract3DGraph10wheelEventEP11QWheelEvent@Qt_5 5.10.1
 _ZN19QtDataVisualization16QAbstract3DGraph11exposeEventEP12QExposeEvent@Qt_5 5.10.1
 _ZN19QtDataVisualization16QAbstract3DGraph11qt_metacallEN11QMetaObject4CallEiPPv@Qt_5 5.10.1
 _ZN19QtDataVisualization16QAbstract3DGraph11qt_metacastEPKc@Qt_5 5.10.1
 _ZN19QtDataVisualization16QAbstract3DGraph11resizeEventEP12QResizeEvent@Qt_5 5.10.1
 _ZN19QtDataVisualization16QAbstract3DGraph12polarChangedEb@Qt_5 5.10.1
 _ZN19QtDataVisualization16QAbstract3DGraph12releaseThemeEPNS_8Q3DThemeE@Qt_5 5.10.1
 _ZN19QtDataVisualization16QAbstract3DGraph13addCustomItemEPNS_13QCustom3DItemE@Qt_5 5.10.1
 _ZN19QtDataVisualization16QAbstract3DGraph13localeChangedERK7QLocale@Qt_5 5.10.1
 _ZN19QtDataVisualization16QAbstract3DGraph13marginChangedEd@Qt_5 5.10.1
 _ZN19QtDataVisualization16QAbstract3DGraph13renderToImageEiRK5QSize@Qt_5 5.10.1
 _ZN19QtDataVisualization16QAbstract3DGraph13setMeasureFpsEb@Qt_5 5.10.1
 _ZN19QtDataVisualization16QAbstract3DGraph13setReflectionEb@Qt_5 5.10.1
 _ZN19QtDataVisualization16QAbstract3DGraph14clearSelectionEv@Qt_5 5.10.1
 _ZN19QtDataVisualization16QAbstract3DGraph14mouseMoveEventEP11QMouseEvent@Qt_5 5.10.1
 _ZN19QtDataVisualization16QAbstract3DGraph14setActiveThemeEPNS_8Q3DThemeE@Qt_5 5.10.1
 _ZN19QtDataVisualization16QAbstract3DGraph14setAspectRatioEd@Qt_5 5.10.1
 _ZN19QtDataVisualization16QAbstract3DGraph15addInputHandlerEPNS_23QAbstract3DInputHandlerE@Qt_5 5.10.1
 _ZN19QtDataVisualization16QAbstract3DGraph15mousePressEventEP11QMouseEvent@Qt_5 5.10.1
 _ZN19QtDataVisualization16QAbstract3DGraph15setReflectivityEd@Qt_5 5.10.1
 _ZN19QtDataVisualization16QAbstract3DGraph16removeCustomItemEPNS_13QCustom3DItemE@Qt_5 5.10.1
 _ZN19QtDataVisualization16QAbstract3DGraph16setSelectionModeE6QFlagsINS0_13SelectionFlagEE@Qt_5 5.10.1
 _ZN19QtDataVisualization16QAbstract3DGraph16setShadowQualityENS0_13ShadowQualityE@Qt_5 5.10.1
 _ZN19QtDataVisualization16QAbstract3DGraph16staticMetaObjectE@Qt_5 5.10.1
 _ZN19QtDataVisualization16QAbstract3DGraph17currentFpsChangedEd@Qt_5 5.10.1
 _ZN19QtDataVisualization16QAbstract3DGraph17measureFpsChangedEb@Qt_5 5.10.1
 _ZN19QtDataVisualization16QAbstract3DGraph17mouseReleaseEventEP11QMouseEvent@Qt_5 5.10.1
 _ZN19QtDataVisualization16QAbstract3DGraph17reflectionChangedEb@Qt_5 5.10.1
 _ZN19QtDataVisualization16QAbstract3DGraph17releaseCustomItemEPNS_13QCustom3DItemE@Qt_5 5.10.1
 _ZN19QtDataVisualization16QAbstract3DGraph17removeCustomItemsEv@Qt_5 5.10.1
 _ZN19QtDataVisualization16QAbstract3DGraph18activeThemeChangedEPNS_8Q3DThemeE@Qt_5 5.10.1
 _ZN19QtDataVisualization16QAbstract3DGraph18aspectRatioChangedEd@Qt_5 5.10.1
 _ZN19QtDataVisualization16QAbstract3DGraph18removeCustomItemAtERK9QVector3D@Qt_5 5.10.1
 _ZN19QtDataVisualization16QAbstract3DGraph18setOrthoProjectionEb@Qt_5 5.10.1
 _ZN19QtDataVisualization16QAbstract3DGraph19reflectivityChangedEd@Qt_5 5.10.1
 _ZN19QtDataVisualization16QAbstract3DGraph19releaseInputHandlerEPNS_23QAbstract3DInputHandlerE@Qt_5 5.10.1
 _ZN19QtDataVisualization16QAbstract3DGraph20selectionModeChangedE6QFlagsINS0_13SelectionFlagEE@Qt_5 5.10.1
 _ZN19QtDataVisualization16QAbstract3DGraph20setOptimizationHintsE6QFlagsINS0_16OptimizationHintEE@Qt_5 5.10.1
 _ZN19QtDataVisualization16QAbstract3DGraph20setRadialLabelOffsetEf@Qt_5 5.10.1
 _ZN19QtDataVisualization16QAbstract3DGraph20shadowQualityChangedENS0_13ShadowQualityE@Qt_5 5.10.1
 _ZN19QtDataVisualization16QAbstract3DGraph21mouseDoubleClickEventEP11QMouseEvent@Qt_5 5.10.1
 _ZN19QtDataVisualization16QAbstract3DGraph21setActiveInputHandlerEPNS_23QAbstract3DInputHandlerE@Qt_5 5.10.1
 _ZN19QtDataVisualization16QAbstract3DGraph22orthoProjectionChangedEb@Qt_5 5.10.1
 _ZN19QtDataVisualization16QAbstract3DGraph22selectedElementChangedENS0_11ElementTypeE@Qt_5 5.10.1
 _ZN19QtDataVisualization16QAbstract3DGraph24optimizationHintsChangedE6QFlagsINS0_16OptimizationHintEE@Qt_5 5.10.1
 _ZN19QtDataVisualization16QAbstract3DGraph24radialLabelOffsetChangedEf@Qt_5 5.10.1
 _ZN19QtDataVisualization16QAbstract3DGraph24setHorizontalAspectRatioEd@Qt_5 5.10.1
 _ZN19QtDataVisualization16QAbstract3DGraph25activeInputHandlerChangedEPNS_23QAbstract3DInputHandlerE@Qt_5 5.10.1
 _ZN19QtDataVisualization16QAbstract3DGraph27queriedGraphPositionChangedERK9QVector3D@Qt_5 5.10.1
 _ZN19QtDataVisualization16QAbstract3DGraph28horizontalAspectRatioChangedEd@Qt_5 5.10.1
 _ZN19QtDataVisualization16QAbstract3DGraph5eventEP6QEvent@Qt_5 5.10.1
 _ZN19QtDataVisualization16QAbstract3DGraph8addThemeEPNS_8Q3DThemeE@Qt_5 5.10.1
 _ZN19QtDataVisualization16QAbstract3DGraph8setPolarEb@Qt_5 5.10.1
 _ZN19QtDataVisualization16QAbstract3DGraph9setLocaleERK7QLocale@Qt_5 5.10.1
 _ZN19QtDataVisualization16QAbstract3DGraph9setMarginEd@Qt_5 5.10.1
 _ZN19QtDataVisualization16QAbstract3DGraphC1EPNS_23QAbstract3DGraphPrivateEPK14QSurfaceFormatP7QWindow@Qt_5 5.10.1
 _ZN19QtDataVisualization16QAbstract3DGraphC2EPNS_23QAbstract3DGraphPrivateEPK14QSurfaceFormatP7QWindow@Qt_5 5.10.1
 _ZN19QtDataVisualization16QAbstract3DGraphD0Ev@Qt_5 5.10.1
 _ZN19QtDataVisualization16QAbstract3DGraphD1Ev@Qt_5 5.10.1
 _ZN19QtDataVisualization16QAbstract3DGraphD2Ev@Qt_5 5.10.1
 _ZN19QtDataVisualization16QScatter3DSeries11qt_metacallEN11QMetaObject4CallEiPPv@Qt_5 5.10.1
 _ZN19QtDataVisualization16QScatter3DSeries11qt_metacastEPKc@Qt_5 5.10.1
 _ZN19QtDataVisualization16QScatter3DSeries11setItemSizeEf@Qt_5 5.10.1
 _ZN19QtDataVisualization16QScatter3DSeries12setDataProxyEPNS_17QScatterDataProxyE@Qt_5 5.10.1
 _ZN19QtDataVisualization16QScatter3DSeries15itemSizeChangedEf@Qt_5 5.10.1
 _ZN19QtDataVisualization16QScatter3DSeries15setSelectedItemEi@Qt_5 5.10.1
 _ZN19QtDataVisualization16QScatter3DSeries16dataProxyChangedEPNS_17QScatterDataProxyE@Qt_5 5.10.1
 _ZN19QtDataVisualization16QScatter3DSeries16staticMetaObjectE@Qt_5 5.10.1
 _ZN19QtDataVisualization16QScatter3DSeries19selectedItemChangedEi@Qt_5 5.10.1
 _ZN19QtDataVisualization16QScatter3DSeries21invalidSelectionIndexEv@Qt_5 5.10.1
 _ZN19QtDataVisualization16QScatter3DSeries4dptrEv@Qt_5 5.10.1
 _ZN19QtDataVisualization16QScatter3DSeriesC1EP7QObject@Qt_5 5.10.1
 _ZN19QtDataVisualization16QScatter3DSeriesC1EPNS_17QScatterDataProxyEP7QObject@Qt_5 5.10.1
 _ZN19QtDataVisualization16QScatter3DSeriesC1EPNS_23QScatter3DSeriesPrivateEP7QObject@Qt_5 5.10.1
 _ZN19QtDataVisualization16QScatter3DSeriesC2EP7QObject@Qt_5 5.10.1
 _ZN19QtDataVisualization16QScatter3DSeriesC2EPNS_17QScatterDataProxyEP7QObject@Qt_5 5.10.1
 _ZN19QtDataVisualization16QScatter3DSeriesC2EPNS_23QScatter3DSeriesPrivateEP7QObject@Qt_5 5.10.1
 _ZN19QtDataVisualization16QScatter3DSeriesD0Ev@Qt_5 5.10.1
 _ZN19QtDataVisualization16QScatter3DSeriesD1Ev@Qt_5 5.10.1
 _ZN19QtDataVisualization16QScatter3DSeriesD2Ev@Qt_5 5.10.1
 _ZN19QtDataVisualization16QScatterDataItem15createExtraDataEv@Qt_5 5.10.1
 _ZN19QtDataVisualization16QScatterDataItemC1ERK9QVector3D@Qt_5 5.10.1
 _ZN19QtDataVisualization16QScatterDataItemC1ERK9QVector3DRK11QQuaternion@Qt_5 5.10.1
 _ZN19QtDataVisualization16QScatterDataItemC1ERKS0_@Qt_5 5.10.1
 _ZN19QtDataVisualization16QScatterDataItemC1Ev@Qt_5 5.10.1
 _ZN19QtDataVisualization16QScatterDataItemC2ERK9QVector3D@Qt_5 5.10.1
 _ZN19QtDataVisualization16QScatterDataItemC2ERK9QVector3DRK11QQuaternion@Qt_5 5.10.1
 _ZN19QtDataVisualization16QScatterDataItemC2ERKS0_@Qt_5 5.10.1
 _ZN19QtDataVisualization16QScatterDataItemC2Ev@Qt_5 5.10.1
 _ZN19QtDataVisualization16QScatterDataItemD1Ev@Qt_5 5.10.1
 _ZN19QtDataVisualization16QScatterDataItemD2Ev@Qt_5 5.10.1
 _ZN19QtDataVisualization16QScatterDataItemaSERKS0_@Qt_5 5.10.1
 _ZN19QtDataVisualization16QSurface3DSeries10setTextureERK6QImage@Qt_5 5.10.1
 _ZN19QtDataVisualization16QSurface3DSeries11qt_metacallEN11QMetaObject4CallEiPPv@Qt_5 5.10.1
 _ZN19QtDataVisualization16QSurface3DSeries11qt_metacastEPKc@Qt_5 5.10.1
 _ZN19QtDataVisualization16QSurface3DSeries11setDrawModeE6QFlagsINS0_8DrawFlagEE@Qt_5 5.10.1
 _ZN19QtDataVisualization16QSurface3DSeries12setDataProxyEPNS_17QSurfaceDataProxyE@Qt_5 5.10.1
 _ZN19QtDataVisualization16QSurface3DSeries14setTextureFileERK7QString@Qt_5 5.10.1
 _ZN19QtDataVisualization16QSurface3DSeries14textureChangedERK6QImage@Qt_5 5.10.1
 _ZN19QtDataVisualization16QSurface3DSeries15drawModeChangedE6QFlagsINS0_8DrawFlagEE@Qt_5 5.10.1
 _ZN19QtDataVisualization16QSurface3DSeries16dataProxyChangedEPNS_17QSurfaceDataProxyE@Qt_5 5.10.1
 _ZN19QtDataVisualization16QSurface3DSeries16setSelectedPointERK6QPoint@Qt_5 5.10.1
 _ZN19QtDataVisualization16QSurface3DSeries16staticMetaObjectE@Qt_5 5.10.1
 _ZN19QtDataVisualization16QSurface3DSeries18textureFileChangedERK7QString@Qt_5 5.10.1
 _ZN19QtDataVisualization16QSurface3DSeries20selectedPointChangedERK6QPoint@Qt_5 5.10.1
 _ZN19QtDataVisualization16QSurface3DSeries21setFlatShadingEnabledEb@Qt_5 5.10.1
 _ZN19QtDataVisualization16QSurface3DSeries24invalidSelectionPositionEv@Qt_5 5.10.1
 _ZN19QtDataVisualization16QSurface3DSeries25flatShadingEnabledChangedEb@Qt_5 5.10.1
 _ZN19QtDataVisualization16QSurface3DSeries27flatShadingSupportedChangedEb@Qt_5 5.10.1
 _ZN19QtDataVisualization16QSurface3DSeries4dptrEv@Qt_5 5.10.1
 _ZN19QtDataVisualization16QSurface3DSeriesC1EP7QObject@Qt_5 5.10.1
 _ZN19QtDataVisualization16QSurface3DSeriesC1EPNS_17QSurfaceDataProxyEP7QObject@Qt_5 5.10.1
 _ZN19QtDataVisualization16QSurface3DSeriesC1EPNS_23QSurface3DSeriesPrivateEP7QObject@Qt_5 5.10.1
 _ZN19QtDataVisualization16QSurface3DSeriesC2EP7QObject@Qt_5 5.10.1
 _ZN19QtDataVisualization16QSurface3DSeriesC2EPNS_17QSurfaceDataProxyEP7QObject@Qt_5 5.10.1
 _ZN19QtDataVisualization16QSurface3DSeriesC2EPNS_23QSurface3DSeriesPrivateEP7QObject@Qt_5 5.10.1
 _ZN19QtDataVisualization16QSurface3DSeriesD0Ev@Qt_5 5.10.1
 _ZN19QtDataVisualization16QSurface3DSeriesD1Ev@Qt_5 5.10.1
 _ZN19QtDataVisualization16QSurface3DSeriesD2Ev@Qt_5 5.10.1
 _ZN19QtDataVisualization16QSurfaceDataItem15createExtraDataEv@Qt_5 5.10.1
 _ZN19QtDataVisualization16QSurfaceDataItemC1ERK9QVector3D@Qt_5 5.10.1
 _ZN19QtDataVisualization16QSurfaceDataItemC1ERKS0_@Qt_5 5.10.1
 _ZN19QtDataVisualization16QSurfaceDataItemC1Ev@Qt_5 5.10.1
 _ZN19QtDataVisualization16QSurfaceDataItemC2ERK9QVector3D@Qt_5 5.10.1
 _ZN19QtDataVisualization16QSurfaceDataItemC2ERKS0_@Qt_5 5.10.1
 _ZN19QtDataVisualization16QSurfaceDataItemC2Ev@Qt_5 5.10.1
 _ZN19QtDataVisualization16QSurfaceDataItemD1Ev@Qt_5 5.10.1
 _ZN19QtDataVisualization16QSurfaceDataItemD2Ev@Qt_5 5.10.1
 _ZN19QtDataVisualization16QSurfaceDataItemaSERKS0_@Qt_5 5.10.1
 _ZN19QtDataVisualization17QAbstract3DSeries10setVisibleEb@Qt_5 5.10.1
 _ZN19QtDataVisualization17QAbstract3DSeries11meshChangedENS0_4MeshE@Qt_5 5.10.1
 _ZN19QtDataVisualization17QAbstract3DSeries11nameChangedERK7QString@Qt_5 5.10.1
 _ZN19QtDataVisualization17QAbstract3DSeries11qt_metacallEN11QMetaObject4CallEiPPv@Qt_5 5.10.1
 _ZN19QtDataVisualization17QAbstract3DSeries11qt_metacastEPKc@Qt_5 5.10.1
 _ZN19QtDataVisualization17QAbstract3DSeries12setBaseColorERK6QColor@Qt_5 5.10.1
 _ZN19QtDataVisualization17QAbstract3DSeries13setColorStyleENS_8Q3DTheme10ColorStyleE@Qt_5 5.10.1
 _ZN19QtDataVisualization17QAbstract3DSeries13setMeshSmoothEb@Qt_5 5.10.1
 _ZN19QtDataVisualization17QAbstract3DSeries15setBaseGradientERK15QLinearGradient@Qt_5 5.10.1
 _ZN19QtDataVisualization17QAbstract3DSeries15setMeshRotationERK11QQuaternion@Qt_5 5.10.1
 _ZN19QtDataVisualization17QAbstract3DSeries16baseColorChangedERK6QColor@Qt_5 5.10.1
 _ZN19QtDataVisualization17QAbstract3DSeries16itemLabelChangedERK7QString@Qt_5 5.10.1
 _ZN19QtDataVisualization17QAbstract3DSeries16staticMetaObjectE@Qt_5 5.10.1
 _ZN19QtDataVisualization17QAbstract3DSeries17colorStyleChangedENS_8Q3DTheme10ColorStyleE@Qt_5 5.10.1
 _ZN19QtDataVisualization17QAbstract3DSeries17meshSmoothChangedEb@Qt_5 5.10.1
 _ZN19QtDataVisualization17QAbstract3DSeries17visibilityChangedEb@Qt_5 5.10.1
 _ZN19QtDataVisualization17QAbstract3DSeries18setItemLabelFormatERK7QString@Qt_5 5.10.1
 _ZN19QtDataVisualization17QAbstract3DSeries18setUserDefinedMeshERK7QString@Qt_5 5.10.1
 _ZN19QtDataVisualization17QAbstract3DSeries19baseGradientChangedERK15QLinearGradient@Qt_5 5.10.1
 _ZN19QtDataVisualization17QAbstract3DSeries19meshRotationChangedERK11QQuaternion@Qt_5 5.10.1
 _ZN19QtDataVisualization17QAbstract3DSeries19setItemLabelVisibleEb@Qt_5 5.10.1
 _ZN19QtDataVisualization17QAbstract3DSeries19setMeshAxisAndAngleERK9QVector3Df@Qt_5 5.10.1
 _ZN19QtDataVisualization17QAbstract3DSeries22itemLabelFormatChangedERK7QString@Qt_5 5.10.1
 _ZN19QtDataVisualization17QAbstract3DSeries22setMultiHighlightColorERK6QColor@Qt_5 5.10.1
 _ZN19QtDataVisualization17QAbstract3DSeries22userDefinedMeshChangedERK7QString@Qt_5 5.10.1
 _ZN19QtDataVisualization17QAbstract3DSeries23setSingleHighlightColorERK6QColor@Qt_5 5.10.1
 _ZN19QtDataVisualization17QAbstract3DSeries25setMultiHighlightGradientERK15QLinearGradient@Qt_5 5.10.1
 _ZN19QtDataVisualization17QAbstract3DSeries26itemLabelVisibilityChangedEb@Qt_5 5.10.1
 _ZN19QtDataVisualization17QAbstract3DSeries26multiHighlightColorChangedERK6QColor@Qt_5 5.10.1
 _ZN19QtDataVisualization17QAbstract3DSeries26setSingleHighlightGradientERK15QLinearGradient@Qt_5 5.10.1
 _ZN19QtDataVisualization17QAbstract3DSeries27singleHighlightColorChangedERK6QColor@Qt_5 5.10.1
 _ZN19QtDataVisualization17QAbstract3DSeries29multiHighlightGradientChangedERK15QLinearGradient@Qt_5 5.10.1
 _ZN19QtDataVisualization17QAbstract3DSeries30singleHighlightGradientChangedERK15QLinearGradient@Qt_5 5.10.1
 _ZN19QtDataVisualization17QAbstract3DSeries7setMeshENS0_4MeshE@Qt_5 5.10.1
 _ZN19QtDataVisualization17QAbstract3DSeries7setNameERK7QString@Qt_5 5.10.1
 _ZN19QtDataVisualization17QAbstract3DSeriesC1EPNS_24QAbstract3DSeriesPrivateEP7QObject@Qt_5 5.10.1
 _ZN19QtDataVisualization17QAbstract3DSeriesC2EPNS_24QAbstract3DSeriesPrivateEP7QObject@Qt_5 5.10.1
 _ZN19QtDataVisualization17QAbstract3DSeriesD0Ev@Qt_5 5.10.1
 _ZN19QtDataVisualization17QAbstract3DSeriesD1Ev@Qt_5 5.10.1
 _ZN19QtDataVisualization17QAbstract3DSeriesD2Ev@Qt_5 5.10.1
 _ZN19QtDataVisualization17QScatterDataProxy10arrayResetEv@Qt_5 5.10.1
 _ZN19QtDataVisualization17QScatterDataProxy10insertItemEiRKNS_16QScatterDataItemE@Qt_5 5.10.1
 _ZN19QtDataVisualization17QScatterDataProxy10itemsAddedEii@Qt_5 5.10.1
 _ZN19QtDataVisualization17QScatterDataProxy10resetArrayEP7QVectorINS_16QScatterDataItemEE@Qt_5 5.10.1
 _ZN19QtDataVisualization17QScatterDataProxy11insertItemsEiRK7QVectorINS_16QScatterDataItemEE@Qt_5 5.10.1
 _ZN19QtDataVisualization17QScatterDataProxy11qt_metacallEN11QMetaObject4CallEiPPv@Qt_5 5.10.1
 _ZN19QtDataVisualization17QScatterDataProxy11qt_metacastEPKc@Qt_5 5.10.1
 _ZN19QtDataVisualization17QScatterDataProxy11removeItemsEii@Qt_5 5.10.1
 _ZN19QtDataVisualization17QScatterDataProxy12itemsChangedEii@Qt_5 5.10.1
 _ZN19QtDataVisualization17QScatterDataProxy12itemsRemovedEii@Qt_5 5.10.1
 _ZN19QtDataVisualization17QScatterDataProxy13itemsInsertedEii@Qt_5 5.10.1
 _ZN19QtDataVisualization17QScatterDataProxy13seriesChangedEPNS_16QScatter3DSeriesE@Qt_5 5.10.1
 _ZN19QtDataVisualization17QScatterDataProxy16itemCountChangedEi@Qt_5 5.10.1
 _ZN19QtDataVisualization17QScatterDataProxy16staticMetaObjectE@Qt_5 5.10.1
 _ZN19QtDataVisualization17QScatterDataProxy4dptrEv@Qt_5 5.10.1
 _ZN19QtDataVisualization17QScatterDataProxy7addItemERKNS_16QScatterDataItemE@Qt_5 5.10.1
 _ZN19QtDataVisualization17QScatterDataProxy7setItemEiRKNS_16QScatterDataItemE@Qt_5 5.10.1
 _ZN19QtDataVisualization17QScatterDataProxy8addItemsERK7QVectorINS_16QScatterDataItemEE@Qt_5 5.10.1
 _ZN19QtDataVisualization17QScatterDataProxy8setItemsEiRK7QVectorINS_16QScatterDataItemEE@Qt_5 5.10.1
 _ZN19QtDataVisualization17QScatterDataProxyC1EP7QObject@Qt_5 5.10.1
 _ZN19QtDataVisualization17QScatterDataProxyC1EPNS_24QScatterDataProxyPrivateEP7QObject@Qt_5 5.10.1
 _ZN19QtDataVisualization17QScatterDataProxyC2EP7QObject@Qt_5 5.10.1
 _ZN19QtDataVisualization17QScatterDataProxyC2EPNS_24QScatterDataProxyPrivateEP7QObject@Qt_5 5.10.1
 _ZN19QtDataVisualization17QScatterDataProxyD0Ev@Qt_5 5.10.1
 _ZN19QtDataVisualization17QScatterDataProxyD1Ev@Qt_5 5.10.1
 _ZN19QtDataVisualization17QScatterDataProxyD2Ev@Qt_5 5.10.1
 _ZN19QtDataVisualization17QSurfaceDataProxy10arrayResetEv@Qt_5 5.10.1
 _ZN19QtDataVisualization17QSurfaceDataProxy10insertRowsEiRK5QListIP7QVectorINS_16QSurfaceDataItemEEE@Qt_5 5.10.1
 _ZN19QtDataVisualization17QSurfaceDataProxy10removeRowsEii@Qt_5 5.10.1
 _ZN19QtDataVisualization17QSurfaceDataProxy10resetArrayEP5QListIP7QVectorINS_16QSurfaceDataItemEEE@Qt_5 5.10.1
 _ZN19QtDataVisualization17QSurfaceDataProxy11itemChangedEii@Qt_5 5.10.1
 _ZN19QtDataVisualization17QSurfaceDataProxy11qt_metacallEN11QMetaObject4CallEiPPv@Qt_5 5.10.1
 _ZN19QtDataVisualization17QSurfaceDataProxy11qt_metacastEPKc@Qt_5 5.10.1
 _ZN19QtDataVisualization17QSurfaceDataProxy11rowsChangedEii@Qt_5 5.10.1
 _ZN19QtDataVisualization17QSurfaceDataProxy11rowsRemovedEii@Qt_5 5.10.1
 _ZN19QtDataVisualization17QSurfaceDataProxy12rowsInsertedEii@Qt_5 5.10.1
 _ZN19QtDataVisualization17QSurfaceDataProxy13seriesChangedEPNS_16QSurface3DSeriesE@Qt_5 5.10.1
 _ZN19QtDataVisualization17QSurfaceDataProxy15rowCountChangedEi@Qt_5 5.10.1
 _ZN19QtDataVisualization17QSurfaceDataProxy16staticMetaObjectE@Qt_5 5.10.1
 _ZN19QtDataVisualization17QSurfaceDataProxy18columnCountChangedEi@Qt_5 5.10.1
 _ZN19QtDataVisualization17QSurfaceDataProxy4dptrEv@Qt_5 5.10.1
 _ZN19QtDataVisualization17QSurfaceDataProxy6addRowEP7QVectorINS_16QSurfaceDataItemEE@Qt_5 5.10.1
 _ZN19QtDataVisualization17QSurfaceDataProxy6setRowEiP7QVectorINS_16QSurfaceDataItemEE@Qt_5 5.10.1
 _ZN19QtDataVisualization17QSurfaceDataProxy7addRowsERK5QListIP7QVectorINS_16QSurfaceDataItemEEE@Qt_5 5.10.1
 _ZN19QtDataVisualization17QSurfaceDataProxy7setItemERK6QPointRKNS_16QSurfaceDataItemE@Qt_5 5.10.1
 _ZN19QtDataVisualization17QSurfaceDataProxy7setItemEiiRKNS_16QSurfaceDataItemE@Qt_5 5.10.1
 _ZN19QtDataVisualization17QSurfaceDataProxy7setRowsEiRK5QListIP7QVectorINS_16QSurfaceDataItemEEE@Qt_5 5.10.1
 _ZN19QtDataVisualization17QSurfaceDataProxy9insertRowEiP7QVectorINS_16QSurfaceDataItemEE@Qt_5 5.10.1
 _ZN19QtDataVisualization17QSurfaceDataProxy9rowsAddedEii@Qt_5 5.10.1
 _ZN19QtDataVisualization17QSurfaceDataProxyC1EP7QObject@Qt_5 5.10.1
 _ZN19QtDataVisualization17QSurfaceDataProxyC1EPNS_24QSurfaceDataProxyPrivateEP7QObject@Qt_5 5.10.1
 _ZN19QtDataVisualization17QSurfaceDataProxyC2EP7QObject@Qt_5 5.10.1
 _ZN19QtDataVisualization17QSurfaceDataProxyC2EPNS_24QSurfaceDataProxyPrivateEP7QObject@Qt_5 5.10.1
 _ZN19QtDataVisualization17QSurfaceDataProxyD0Ev@Qt_5 5.10.1
 _ZN19QtDataVisualization17QSurfaceDataProxyD1Ev@Qt_5 5.10.1
 _ZN19QtDataVisualization17QSurfaceDataProxyD2Ev@Qt_5 5.10.1
 _ZN19QtDataVisualization17Scatter3DRenderer10drawLabelsEbPKNS_9Q3DCameraERK10QMatrix4x4S6_@Qt_5 5.10.1
 _ZN19QtDataVisualization17Scatter3DRenderer10updateDataEv@Qt_5 5.10.1
 _ZN19QtDataVisualization17Scatter3DRenderer11initShadersERK7QStringS3_@Qt_5 5.10.1
 _ZN19QtDataVisualization17Scatter3DRenderer11qt_metacallEN11QMetaObject4CallEiPPv@Qt_5 5.10.1
 _ZN19QtDataVisualization17Scatter3DRenderer11qt_metacastEPKc@Qt_5 5.10.1
 _ZN19QtDataVisualization17Scatter3DRenderer11updateItemsERK7QVectorINS_19Scatter3DController10ChangeItemEE@Qt_5 5.10.1
 _ZN19QtDataVisualization17Scatter3DRenderer11updateSceneEPNS_8Q3DSceneE@Qt_5 5.10.1
 _ZN19QtDataVisualization17Scatter3DRenderer12updateMarginEf@Qt_5 5.10.1
 _ZN19QtDataVisualization17Scatter3DRenderer12updateSeriesERK5QListIPNS_17QAbstract3DSeriesEE@Qt_5 5.10.1
 _ZN19QtDataVisualization17Scatter3DRenderer14createNewCacheEPNS_17QAbstract3DSeriesE@Qt_5 5.10.1
 _ZN19QtDataVisualization17Scatter3DRenderer14updateTexturesEv@Qt_5 5.10.1
 _ZN19QtDataVisualization17Scatter3DRenderer15fixCameraTargetER9QVector3D@Qt_5 5.10.1
 _ZN19QtDataVisualization17Scatter3DRenderer15fixMeshFileNameER7QStringNS_17QAbstract3DSeries4MeshE@Qt_5 5.10.1
 _ZN19QtDataVisualization17Scatter3DRenderer15initDepthShaderEv@Qt_5 5.10.1
 _ZN19QtDataVisualization17Scatter3DRenderer15initPointShaderEv@Qt_5 5.10.1
 _ZN19QtDataVisualization17Scatter3DRenderer16initializeOpenGLEv@Qt_5 5.10.1
 _ZN19QtDataVisualization17Scatter3DRenderer16staticMetaObjectE@Qt_5 5.10.1
 _ZN19QtDataVisualization17Scatter3DRenderer16updateAxisLabelsENS_15QAbstract3DAxis15AxisOrientationERK11QStringList@Qt_5 5.10.1
 _ZN19QtDataVisualization17Scatter3DRenderer17updateDepthBufferEv@Qt_5 5.10.1
 _ZN19QtDataVisualization17Scatter3DRenderer18loadBackgroundMeshEv@Qt_5 5.10.1
 _ZN19QtDataVisualization17Scatter3DRenderer18resetClickedStatusEv@Qt_5 5.10.1
 _ZN19QtDataVisualization17Scatter3DRenderer18updateSelectedItemEiPNS_16QScatter3DSeriesE@Qt_5 5.10.1
 _ZN19QtDataVisualization17Scatter3DRenderer19initGradientShadersERK7QStringS3_@Qt_5 5.10.1
 _ZN19QtDataVisualization17Scatter3DRenderer19initSelectionBufferEv@Qt_5 5.10.1
 _ZN19QtDataVisualization17Scatter3DRenderer19initSelectionShaderEv@Qt_5 5.10.1
 _ZN19QtDataVisualization17Scatter3DRenderer19updateShadowQualityENS_16QAbstract3DGraph13ShadowQualityE@Qt_5 5.10.1
 _ZN19QtDataVisualization17Scatter3DRenderer20calculateTranslationERNS_17ScatterRenderItemE@Qt_5 5.10.1
 _ZN19QtDataVisualization17Scatter3DRenderer20getVisibleItemBoundsER9QVector3DS2_@Qt_5 5.10.1
 _ZN19QtDataVisualization17Scatter3DRenderer21initBackgroundShadersERK7QStringS3_@Qt_5 5.10.1
 _ZN19QtDataVisualization17Scatter3DRenderer22initStaticPointShadersERK7QStringS3_@Qt_5 5.10.1
 _ZN19QtDataVisualization17Scatter3DRenderer22updateOptimizationHintE6QFlagsINS_16QAbstract3DGraph16OptimizationHintEE@Qt_5 5.10.1
 _ZN19QtDataVisualization17Scatter3DRenderer25updateAxisTitleVisibilityENS_15QAbstract3DAxis15AxisOrientationEb@Qt_5 5.10.1
 _ZN19QtDataVisualization17Scatter3DRenderer28calculateSceneScalingFactorsEv@Qt_5 5.10.1
 _ZN19QtDataVisualization17Scatter3DRenderer28convertPositionToTranslationERK9QVector3Db@Qt_5 5.10.1
 _ZN19QtDataVisualization17Scatter3DRenderer29initStaticSelectedItemShadersERK7QStringS3_S3_S3_@Qt_5 5.10.1
 _ZN19QtDataVisualization17Scatter3DRenderer30selectionColorToSeriesAndIndexERK9QVector4DRiRPNS_17QAbstract3DSeriesE@Qt_5 5.10.1
 _ZN19QtDataVisualization17Scatter3DRenderer6renderEj@Qt_5 5.10.1
 _ZN19QtDataVisualization17Scatter3DRenderer9drawSceneEj@Qt_5 5.10.1
 _ZN19QtDataVisualization17Scatter3DRendererC1EPNS_19Scatter3DControllerE@Qt_5 5.10.1
 _ZN19QtDataVisualization17Scatter3DRendererC2EPNS_19Scatter3DControllerE@Qt_5 5.10.1
 _ZN19QtDataVisualization17Scatter3DRendererD0Ev@Qt_5 5.10.1
 _ZN19QtDataVisualization17Scatter3DRendererD1Ev@Qt_5 5.10.1
 _ZN19QtDataVisualization17Scatter3DRendererD2Ev@Qt_5 5.10.1
 _ZN19QtDataVisualization17Surface3DRenderer10cleanCacheEPNS_17SeriesRenderCacheE@Qt_5 5.10.1
 _ZN19QtDataVisualization17Surface3DRenderer10drawLabelsEbPKNS_9Q3DCameraERK10QMatrix4x4S6_@Qt_5 5.10.1
 _ZN19QtDataVisualization17Surface3DRenderer10updateDataEv@Qt_5 5.10.1
 _ZN19QtDataVisualization17Surface3DRenderer10updateRowsERK7QVectorINS_19Surface3DController9ChangeRowEE@Qt_5 5.10.1
 _ZN19QtDataVisualization17Surface3DRenderer11initShadersERK7QStringS3_@Qt_5 5.10.1
 _ZN19QtDataVisualization17Surface3DRenderer11qt_metacallEN11QMetaObject4CallEiPPv@Qt_5 5.10.1
 _ZN19QtDataVisualization17Surface3DRenderer11qt_metacastEPKc@Qt_5 5.10.1
 _ZN19QtDataVisualization17Surface3DRenderer11updateItemsERK7QVectorINS_19Surface3DController10ChangeItemEE@Qt_5 5.10.1
 _ZN19QtDataVisualization17Surface3DRenderer11updateSceneEPNS_8Q3DSceneE@Qt_5 5.10.1
 _ZN19QtDataVisualization17Surface3DRenderer12fillIdCornerEPhhhhh@Qt_5 5.10.1
 _ZN19QtDataVisualization17Surface3DRenderer12updateMarginEf@Qt_5 5.10.1
 _ZN19QtDataVisualization17Surface3DRenderer12updateSeriesERK5QListIPNS_17QAbstract3DSeriesEE@Qt_5 5.10.1
 _ZN19QtDataVisualization17Surface3DRenderer13updateObjectsEPNS_24SurfaceSeriesRenderCacheEb@Qt_5 5.10.1
 _ZN19QtDataVisualization17Surface3DRenderer14createNewCacheEPNS_17QAbstract3DSeriesE@Qt_5 5.10.1
 _ZN19QtDataVisualization17Surface3DRenderer14updateTexturesEv@Qt_5 5.10.1
 _ZN19QtDataVisualization17Surface3DRenderer15drawSlicedSceneEv@Qt_5 5.10.1
 _ZN19QtDataVisualization17Surface3DRenderer15findMatchingRowEfRiiR5QListIP7QVectorINS_16QSurfaceDataItemEEE@Qt_5 5.10.1
 _ZN19QtDataVisualization17Surface3DRenderer15fixCameraTargetER9QVector3D@Qt_5 5.10.1
 _ZN19QtDataVisualization17Surface3DRenderer15initDepthShaderEv@Qt_5 5.10.1
 _ZN19QtDataVisualization17Surface3DRenderer16checkFlatSupportEPNS_24SurfaceSeriesRenderCacheE@Qt_5 5.10.1
 _ZN19QtDataVisualization17Surface3DRenderer16initializeOpenGLEv@Qt_5 5.10.1
 _ZN19QtDataVisualization17Surface3DRenderer16staticMetaObjectE@Qt_5 5.10.1
 _ZN19QtDataVisualization17Surface3DRenderer16updateAxisLabelsENS_15QAbstract3DAxis15AxisOrientationERK11QStringList@Qt_5 5.10.1
 _ZN19QtDataVisualization17Surface3DRenderer17updateDepthBufferEv@Qt_5 5.10.1
 _ZN19QtDataVisualization17Surface3DRenderer17updateSliceObjectEPNS_24SurfaceSeriesRenderCacheERK6QPoint@Qt_5 5.10.1
 _ZN19QtDataVisualization17Surface3DRenderer18findMatchingColumnEfRiiR5QListIP7QVectorINS_16QSurfaceDataItemEEE@Qt_5 5.10.1
 _ZN19QtDataVisualization17Surface3DRenderer18initSurfaceShadersEv@Qt_5 5.10.1
 _ZN19QtDataVisualization17Surface3DRenderer18loadBackgroundMeshEv@Qt_5 5.10.1
 _ZN19QtDataVisualization17Surface3DRenderer18resetClickedStatusEv@Qt_5 5.10.1
 _ZN19QtDataVisualization17Surface3DRenderer19calculateSampleRectERK5QListIP7QVectorINS_16QSurfaceDataItemEEE@Qt_5 5.10.1
 _ZN19QtDataVisualization17Surface3DRenderer19initSelectionBufferEv@Qt_5 5.10.1
 _ZN19QtDataVisualization17Surface3DRenderer19updateSelectedPointERK6QPointPNS_16QSurface3DSeriesE@Qt_5 5.10.1
 _ZN19QtDataVisualization17Surface3DRenderer19updateSelectionModeE6QFlagsINS_16QAbstract3DGraph13SelectionFlagEE@Qt_5 5.10.1
 _ZN19QtDataVisualization17Surface3DRenderer19updateShadowQualityENS_16QAbstract3DGraph13ShadowQualityE@Qt_5 5.10.1
 _ZN19QtDataVisualization17Surface3DRenderer19updateSlicingActiveEb@Qt_5 5.10.1
 _ZN19QtDataVisualization17Surface3DRenderer20getVisibleItemBoundsER9QVector3DS2_@Qt_5 5.10.1
 _ZN19QtDataVisualization17Surface3DRenderer20initSelectionShadersEv@Qt_5 5.10.1
 _ZN19QtDataVisualization17Surface3DRenderer20surfacePointSelectedERK6QPoint@Qt_5 5.10.1
 _ZN19QtDataVisualization17Surface3DRenderer20updateSelectionPointEPNS_24SurfaceSeriesRenderCacheERK6QPointb@Qt_5 5.10.1
 _ZN19QtDataVisualization17Surface3DRenderer20updateSliceDataModelERK6QPoint@Qt_5 5.10.1
 _ZN19QtDataVisualization17Surface3DRenderer21initBackgroundShadersERK7QStringS3_@Qt_5 5.10.1
 _ZN19QtDataVisualization17Surface3DRenderer21updateSurfaceTexturesE7QVectorIPNS_16QSurface3DSeriesEE@Qt_5 5.10.1
 _ZN19QtDataVisualization17Surface3DRenderer22createSelectionTextureEPNS_24SurfaceSeriesRenderCacheERj@Qt_5 5.10.1
 _ZN19QtDataVisualization17Surface3DRenderer22mapCoordsToSampleSpaceEPNS_24SurfaceSeriesRenderCacheERK7QPointF@Qt_5 5.10.1
 _ZN19QtDataVisualization17Surface3DRenderer23updateSelectionTexturesEv@Qt_5 5.10.1
 _ZN19QtDataVisualization17Surface3DRenderer24updateFlipHorizontalGridEb@Qt_5 5.10.1
 _ZN19QtDataVisualization17Surface3DRenderer25selectionIdToSurfacePointEj@Qt_5 5.10.1
 _ZN19QtDataVisualization17Surface3DRenderer25updateAxisTitleVisibilityENS_15QAbstract3DAxis15AxisOrientationEb@Qt_5 5.10.1
 _ZN19QtDataVisualization17Surface3DRenderer27flatShadingSupportedChangedEb@Qt_5 5.10.1
 _ZN19QtDataVisualization17Surface3DRenderer28calculateSceneScalingFactorsEv@Qt_5 5.10.1
 _ZN19QtDataVisualization17Surface3DRenderer28convertPositionToTranslationERK9QVector3Db@Qt_5 5.10.1
 _ZN19QtDataVisualization17Surface3DRenderer6renderEj@Qt_5 5.10.1
 _ZN19QtDataVisualization17Surface3DRenderer8idToRGBAEjPhS1_S1_S1_@Qt_5 5.10.1
 _ZN19QtDataVisualization17Surface3DRenderer9drawSceneEj@Qt_5 5.10.1
 _ZN19QtDataVisualization17Surface3DRendererC1EPNS_19Surface3DControllerE@Qt_5 5.10.1
 _ZN19QtDataVisualization17Surface3DRendererC2EPNS_19Surface3DControllerE@Qt_5 5.10.1
 _ZN19QtDataVisualization17Surface3DRendererD0Ev@Qt_5 5.10.1
 _ZN19QtDataVisualization17Surface3DRendererD1Ev@Qt_5 5.10.1
 _ZN19QtDataVisualization17Surface3DRendererD2Ev@Qt_5 5.10.1
 _ZN19QtDataVisualization18QAbstractDataProxy11qt_metacallEN11QMetaObject4CallEiPPv@Qt_5 5.10.1
 _ZN19QtDataVisualization18QAbstractDataProxy11qt_metacastEPKc@Qt_5 5.10.1
 _ZN19QtDataVisualization18QAbstractDataProxy16staticMetaObjectE@Qt_5 5.10.1
 _ZN19QtDataVisualization18QAbstractDataProxyC1EPNS_25QAbstractDataProxyPrivateEP7QObject@Qt_5 5.10.1
 _ZN19QtDataVisualization18QAbstractDataProxyC2EPNS_25QAbstractDataProxyPrivateEP7QObject@Qt_5 5.10.1
 _ZN19QtDataVisualization18QAbstractDataProxyD0Ev@Qt_5 5.10.1
 _ZN19QtDataVisualization18QAbstractDataProxyD1Ev@Qt_5 5.10.1
 _ZN19QtDataVisualization18QAbstractDataProxyD2Ev@Qt_5 5.10.1
 _ZN19QtDataVisualization19Scatter3DController11qt_metacallEN11QMetaObject4CallEiPPv@Qt_5 5.10.1
 _ZN19QtDataVisualization19Scatter3DController11qt_metacastEPKc@Qt_5 5.10.1
 _ZN19QtDataVisualization19Scatter3DController12removeSeriesEPNS_17QAbstract3DSeriesE@Qt_5 5.10.1
 _ZN19QtDataVisualization19Scatter3DController14clearSelectionEv@Qt_5 5.10.1
 _ZN19QtDataVisualization19Scatter3DController15setSelectedItemEiPNS_16QScatter3DSeriesE@Qt_5 5.10.1
 _ZN19QtDataVisualization19Scatter3DController16adjustAxisRangesEv@Qt_5 5.10.1
 _ZN19QtDataVisualization19Scatter3DController16handleArrayResetEv@Qt_5 5.10.1
 _ZN19QtDataVisualization19Scatter3DController16handleItemsAddedEii@Qt_5 5.10.1
 _ZN19QtDataVisualization19Scatter3DController16initializeOpenGLEv@Qt_5 5.10.1
 _ZN19QtDataVisualization19Scatter3DController16setSelectionModeE6QFlagsINS_16QAbstract3DGraph13SelectionFlagEE@Qt_5 5.10.1
 _ZN19QtDataVisualization19Scatter3DController16staticMetaObjectE@Qt_5 5.10.1
 _ZN19QtDataVisualization19Scatter3DController17scatterSeriesListEv@Qt_5 5.10.1
 _ZN19QtDataVisualization19Scatter3DController18handleItemsChangedEii@Qt_5 5.10.1
 _ZN19QtDataVisualization19Scatter3DController18handleItemsRemovedEii@Qt_5 5.10.1
 _ZN19QtDataVisualization19Scatter3DController18handlePendingClickEv@Qt_5 5.10.1
 _ZN19QtDataVisualization19Scatter3DController19handleItemsInsertedEii@Qt_5 5.10.1
 _ZN19QtDataVisualization19Scatter3DController19synchDataToRendererEv@Qt_5 5.10.1
 _ZN19QtDataVisualization19Scatter3DController21selectedSeriesChangedEPNS_16QScatter3DSeriesE@Qt_5 5.10.1
 _ZN19QtDataVisualization19Scatter3DController30handleAxisRangeChangedBySenderEP7QObject@Qt_5 5.10.1
 _ZN19QtDataVisualization19Scatter3DController31startRecordingRemovesAndInsertsEv@Qt_5 5.10.1
 _ZN19QtDataVisualization19Scatter3DController45handleAxisAutoAdjustRangeChangedInOrientationENS_15QAbstract3DAxis15AxisOrientationEb@Qt_5 5.10.1
 _ZN19QtDataVisualization19Scatter3DController9addSeriesEPNS_17QAbstract3DSeriesE@Qt_5 5.10.1
 _ZN19QtDataVisualization19Scatter3DControllerC1E5QRectPNS_8Q3DSceneE@Qt_5 5.10.1
 _ZN19QtDataVisualization19Scatter3DControllerC2E5QRectPNS_8Q3DSceneE@Qt_5 5.10.1
 _ZN19QtDataVisualization19Scatter3DControllerD0Ev@Qt_5 5.10.1
 _ZN19QtDataVisualization19Scatter3DControllerD1Ev@Qt_5 5.10.1
 _ZN19QtDataVisualization19Scatter3DControllerD2Ev@Qt_5 5.10.1
 _ZN19QtDataVisualization19Surface3DController11qt_metacallEN11QMetaObject4CallEiPPv@Qt_5 5.10.1
 _ZN19QtDataVisualization19Surface3DController11qt_metacastEPKc@Qt_5 5.10.1
 _ZN19QtDataVisualization19Surface3DController12removeSeriesEPNS_17QAbstract3DSeriesE@Qt_5 5.10.1
 _ZN19QtDataVisualization19Surface3DController14clearSelectionEv@Qt_5 5.10.1
 _ZN19QtDataVisualization19Surface3DController15handleRowsAddedEii@Qt_5 5.10.1
 _ZN19QtDataVisualization19Surface3DController16adjustAxisRangesEv@Qt_5 5.10.1
 _ZN19QtDataVisualization19Surface3DController16handleArrayResetEv@Qt_5 5.10.1
 _ZN19QtDataVisualization19Surface3DController16initializeOpenGLEv@Qt_5 5.10.1
 _ZN19QtDataVisualization19Surface3DController16setSelectedPointERK6QPointPNS_16QSurface3DSeriesEb@Qt_5 5.10.1
 _ZN19QtDataVisualization19Surface3DController16setSelectionModeE6QFlagsINS_16QAbstract3DGraph13SelectionFlagEE@Qt_5 5.10.1
 _ZN19QtDataVisualization19Surface3DController16staticMetaObjectE@Qt_5 5.10.1
 _ZN19QtDataVisualization19Surface3DController17handleItemChangedEii@Qt_5 5.10.1
 _ZN19QtDataVisualization19Surface3DController17handleRowsChangedEii@Qt_5 5.10.1
 _ZN19QtDataVisualization19Surface3DController17handleRowsRemovedEii@Qt_5 5.10.1
 _ZN19QtDataVisualization19Surface3DController17surfaceSeriesListEv@Qt_5 5.10.1
 _ZN19QtDataVisualization19Surface3DController18handlePendingClickEv@Qt_5 5.10.1
 _ZN19QtDataVisualization19Surface3DController18handleRowsInsertedEii@Qt_5 5.10.1
 _ZN19QtDataVisualization19Surface3DController19synchDataToRendererEv@Qt_5 5.10.1
 _ZN19QtDataVisualization19Surface3DController20updateSurfaceTextureEPNS_16QSurface3DSeriesE@Qt_5 5.10.1
 _ZN19QtDataVisualization19Surface3DController21selectedSeriesChangedEPNS_16QSurface3DSeriesE@Qt_5 5.10.1
 _ZN19QtDataVisualization19Surface3DController21setFlipHorizontalGridEb@Qt_5 5.10.1
 _ZN19QtDataVisualization19Surface3DController22isFlatShadingSupportedEv@Qt_5 5.10.1
 _ZN19QtDataVisualization19Surface3DController24invalidSelectionPositionEv@Qt_5 5.10.1
 _ZN19QtDataVisualization19Surface3DController25flipHorizontalGridChangedEb@Qt_5 5.10.1
 _ZN19QtDataVisualization19Surface3DController30handleAxisRangeChangedBySenderEP7QObject@Qt_5 5.10.1
 _ZN19QtDataVisualization19Surface3DController32handleFlatShadingSupportedChangeEb@Qt_5 5.10.1
 _ZN19QtDataVisualization19Surface3DController37handleSeriesVisibilityChangedBySenderEP7QObject@Qt_5 5.10.1
 _ZN19QtDataVisualization19Surface3DController45handleAxisAutoAdjustRangeChangedInOrientationENS_15QAbstract3DAxis15AxisOrientationEb@Qt_5 5.10.1
 _ZN19QtDataVisualization19Surface3DController9addSeriesEPNS_17QAbstract3DSeriesE@Qt_5 5.10.1
 _ZN19QtDataVisualization19Surface3DControllerC1E5QRectPNS_8Q3DSceneE@Qt_5 5.10.1
 _ZN19QtDataVisualization19Surface3DControllerC2E5QRectPNS_8Q3DSceneE@Qt_5 5.10.1
 _ZN19QtDataVisualization19Surface3DControllerD0Ev@Qt_5 5.10.1
 _ZN19QtDataVisualization19Surface3DControllerD1Ev@Qt_5 5.10.1
 _ZN19QtDataVisualization19Surface3DControllerD2Ev@Qt_5 5.10.1
 _ZN19QtDataVisualization20Abstract3DController10needRenderEv@Qt_5 5.10.1
 _ZN19QtDataVisualization20Abstract3DController10seriesListEv@Qt_5 5.10.1
 _ZN19QtDataVisualization20Abstract3DController10touchEventEP11QTouchEvent@Qt_5 5.10.1
 _ZN19QtDataVisualization20Abstract3DController10wheelEventEP11QWheelEvent@Qt_5 5.10.1
 _ZN19QtDataVisualization20Abstract3DController11aspectRatioEv@Qt_5 5.10.1
 _ZN19QtDataVisualization20Abstract3DController11qt_metacallEN11QMetaObject4CallEiPPv@Qt_5 5.10.1
 _ZN19QtDataVisualization20Abstract3DController11qt_metacastEPKc@Qt_5 5.10.1
 _ZN19QtDataVisualization20Abstract3DController11releaseAxisEPNS_15QAbstract3DAxisE@Qt_5 5.10.1
 _ZN19QtDataVisualization20Abstract3DController11setRendererEPNS_18Abstract3DRendererE@Qt_5 5.10.1
 _ZN19QtDataVisualization20Abstract3DController12axisXChangedEPNS_15QAbstract3DAxisE@Qt_5 5.10.1
 _ZN19QtDataVisualization20Abstract3DController12axisYChangedEPNS_15QAbstract3DAxisE@Qt_5 5.10.1
 _ZN19QtDataVisualization20Abstract3DController12axisZChangedEPNS_15QAbstract3DAxisE@Qt_5 5.10.1
 _ZN19QtDataVisualization20Abstract3DController12insertSeriesEiPNS_17QAbstract3DSeriesE@Qt_5 5.10.1
 _ZN19QtDataVisualization20Abstract3DController12polarChangedEb@Qt_5 5.10.1
 _ZN19QtDataVisualization20Abstract3DController12releaseThemeEPNS_8Q3DThemeE@Qt_5 5.10.1
 _ZN19QtDataVisualization20Abstract3DController12removeSeriesEPNS_17QAbstract3DSeriesE@Qt_5 5.10.1
 _ZN19QtDataVisualization20Abstract3DController13addCustomItemEPNS_13QCustom3DItemE@Qt_5 5.10.1
 _ZN19QtDataVisualization20Abstract3DController13localeChangedERK7QLocale@Qt_5 5.10.1
 _ZN19QtDataVisualization20Abstract3DController13marginChangedEd@Qt_5 5.10.1
 _ZN19QtDataVisualization20Abstract3DController13markDataDirtyEv@Qt_5 5.10.1
 _ZN19QtDataVisualization20Abstract3DController13requestRenderEP24QOpenGLFramebufferObject@Qt_5 5.10.1
 _ZN19QtDataVisualization20Abstract3DController13setAxisHelperENS_15QAbstract3DAxis15AxisOrientationEPS1_PS3_@Qt_5 5.10.1
 _ZN19QtDataVisualization20Abstract3DController13setMeasureFpsEb@Qt_5 5.10.1
 _ZN19QtDataVisualization20Abstract3DController13setReflectionEb@Qt_5 5.10.1
 _ZN19QtDataVisualization20Abstract3DController14emitNeedRenderEv@Qt_5 5.10.1
 _ZN19QtDataVisualization20Abstract3DController14mouseMoveEventEP11QMouseEventRK6QPoint@Qt_5 5.10.1
 _ZN19QtDataVisualization20Abstract3DController14setActiveThemeEPNS_8Q3DThemeEb@Qt_5 5.10.1
 _ZN19QtDataVisualization20Abstract3DController14setAspectRatioEd@Qt_5 5.10.1
 _ZN19QtDataVisualization20Abstract3DController15addInputHandlerEPNS_23QAbstract3DInputHandlerE@Qt_5 5.10.1
 _ZN19QtDataVisualization20Abstract3DController15destroyRendererEv@Qt_5 5.10.1
 _ZN19QtDataVisualization20Abstract3DController15elementSelectedENS_16QAbstract3DGraph11ElementTypeE@Qt_5 5.10.1
 _ZN19QtDataVisualization20Abstract3DController15mousePressEventEP11QMouseEventRK6QPoint@Qt_5 5.10.1
 _ZN19QtDataVisualization20Abstract3DController15setReflectivityEd@Qt_5 5.10.1
 _ZN19QtDataVisualization20Abstract3DController16deleteCustomItemEPNS_13QCustom3DItemE@Qt_5 5.10.1
 _ZN19QtDataVisualization20Abstract3DController16deleteCustomItemERK9QVector3D@Qt_5 5.10.1
 _ZN19QtDataVisualization20Abstract3DController16setSelectionModeE6QFlagsINS_16QAbstract3DGraph13SelectionFlagEE@Qt_5 5.10.1
 _ZN19QtDataVisualization20Abstract3DController16setShadowQualityENS_16QAbstract3DGraph13ShadowQualityE@Qt_5 5.10.1
 _ZN19QtDataVisualization20Abstract3DController16setSlicingActiveEb@Qt_5 5.10.1
 _ZN19QtDataVisualization20Abstract3DController16staticMetaObjectE@Qt_5 5.10.1
 _ZN19QtDataVisualization20Abstract3DController16updateCustomItemEv@Qt_5 5.10.1
 _ZN19QtDataVisualization20Abstract3DController17createDefaultAxisENS_15QAbstract3DAxis15AxisOrientationE@Qt_5 5.10.1
 _ZN19QtDataVisualization20Abstract3DController17currentFpsChangedEd@Qt_5 5.10.1
 _ZN19QtDataVisualization20Abstract3DController17deleteCustomItemsEv@Qt_5 5.10.1
 _ZN19QtDataVisualization20Abstract3DController17measureFpsChangedEb@Qt_5 5.10.1
 _ZN19QtDataVisualization20Abstract3DController17mouseReleaseEventEP11QMouseEventRK6QPoint@Qt_5 5.10.1
 _ZN19QtDataVisualization20Abstract3DController17reflectionChangedEb@Qt_5 5.10.1
 _ZN19QtDataVisualization20Abstract3DController17releaseCustomItemEPNS_13QCustom3DItemE@Qt_5 5.10.1
 _ZN19QtDataVisualization20Abstract3DController18activeInputHandlerEv@Qt_5 5.10.1
 _ZN19QtDataVisualization20Abstract3DController18activeThemeChangedEPNS_8Q3DThemeE@Qt_5 5.10.1
 _ZN19QtDataVisualization20Abstract3DController18aspectRatioChangedEd@Qt_5 5.10.1
 _ZN19QtDataVisualization20Abstract3DController18doSetShadowQualityENS_16QAbstract3DGraph13ShadowQualityE@Qt_5 5.10.1
 _ZN19QtDataVisualization20Abstract3DController18handlePendingClickEv@Qt_5 5.10.1
 _ZN19QtDataVisualization20Abstract3DController18setOrthoProjectionEb@Qt_5 5.10.1
 _ZN19QtDataVisualization20Abstract3DController19reflectivityChangedEd@Qt_5 5.10.1
 _ZN19QtDataVisualization20Abstract3DController19releaseInputHandlerEPNS_23QAbstract3DInputHandlerE@Qt_5 5.10.1
 _ZN19QtDataVisualization20Abstract3DController19synchDataToRendererEv@Qt_5 5.10.1
 _ZN19QtDataVisualization20Abstract3DController20selectionModeChangedE6QFlagsINS_16QAbstract3DGraph13SelectionFlagEE@Qt_5 5.10.1
 _ZN19QtDataVisualization20Abstract3DController20setOptimizationHintsE6QFlagsINS_16QAbstract3DGraph16OptimizationHintEE@Qt_5 5.10.1
 _ZN19QtDataVisualization20Abstract3DController20setRadialLabelOffsetEf@Qt_5 5.10.1
 _ZN19QtDataVisualization20Abstract3DController20shadowQualityChangedENS_16QAbstract3DGraph13ShadowQualityE@Qt_5 5.10.1
 _ZN19QtDataVisualization20Abstract3DController21mouseDoubleClickEventEP11QMouseEvent@Qt_5 5.10.1
 _ZN19QtDataVisualization20Abstract3DController21setActiveInputHandlerEPNS_23QAbstract3DInputHandlerE@Qt_5 5.10.1
 _ZN19QtDataVisualization20Abstract3DController22createDefaultValueAxisEv@Qt_5 5.10.1
 _ZN19QtDataVisualization20Abstract3DController22handleAxisRangeChangedEff@Qt_5 5.10.1
 _ZN19QtDataVisualization20Abstract3DController22handleAxisTitleChangedERK7QString@Qt_5 5.10.1
 _ZN19QtDataVisualization20Abstract3DController22handleInputViewChangedENS_23QAbstract3DInputHandler9InputViewE@Qt_5 5.10.1
 _ZN19QtDataVisualization20Abstract3DController22handleThemeTypeChangedENS_8Q3DTheme5ThemeE@Qt_5 5.10.1
 _ZN19QtDataVisualization20Abstract3DController22markSeriesVisualsDirtyEv@Qt_5 5.10.1
 _ZN19QtDataVisualization20Abstract3DController22orthoProjectionChangedEb@Qt_5 5.10.1
 _ZN19QtDataVisualization20Abstract3DController23handleAxisLabelsChangedEv@Qt_5 5.10.1
 _ZN19QtDataVisualization20Abstract3DController24handleAxisFormatterDirtyEv@Qt_5 5.10.1
 _ZN19QtDataVisualization20Abstract3DController24optimizationHintsChangedE6QFlagsINS_16QAbstract3DGraph16OptimizationHintEE@Qt_5 5.10.1
 _ZN19QtDataVisualization20Abstract3DController24radialLabelOffsetChangedEf@Qt_5 5.10.1
 _ZN19QtDataVisualization20Abstract3DController24setHorizontalAspectRatioEd@Qt_5 5.10.1
 _ZN19QtDataVisualization20Abstract3DController25activeInputHandlerChangedEPNS_23QAbstract3DInputHandlerE@Qt_5 5.10.1
 _ZN19QtDataVisualization20Abstract3DController25createDefaultCategoryAxisEv@Qt_5 5.10.1
 _ZN19QtDataVisualization20Abstract3DController25handleAxisReversedChangedEb@Qt_5 5.10.1
 _ZN19QtDataVisualization20Abstract3DController25markSeriesItemLabelsDirtyEv@Qt_5 5.10.1
 _ZN19QtDataVisualization20Abstract3DController26handleInputPositionChangedERK6QPoint@Qt_5 5.10.1
 _ZN19QtDataVisualization20Abstract3DController26handleRequestShadowQualityENS_16QAbstract3DGraph13ShadowQualityE@Qt_5 5.10.1
 _ZN19QtDataVisualization20Abstract3DController27handleAxisTitleFixedChangedEb@Qt_5 5.10.1
 _ZN19QtDataVisualization20Abstract3DController27queriedGraphPositionChangedERK9QVector3D@Qt_5 5.10.1
 _ZN19QtDataVisualization20Abstract3DController28handleAxisLabelFormatChangedERK7QString@Qt_5 5.10.1
 _ZN19QtDataVisualization20Abstract3DController28handleThemeBaseColorsChangedERK5QListI6QColorE@Qt_5 5.10.1
 _ZN19QtDataVisualization20Abstract3DController28handleThemeColorStyleChangedENS_8Q3DTheme10ColorStyleE@Qt_5 5.10.1
 _ZN19QtDataVisualization20Abstract3DController28horizontalAspectRatioChangedEd@Qt_5 5.10.1
 _ZN19QtDataVisualization20Abstract3DController29handleAxisSegmentCountChangedEi@Qt_5 5.10.1
 _ZN19QtDataVisualization20Abstract3DController29handleSeriesVisibilityChangedEb@Qt_5 5.10.1
 _ZN19QtDataVisualization20Abstract3DController30handleAxisRangeChangedBySenderEP7QObject@Qt_5 5.10.1
 _ZN19QtDataVisualization20Abstract3DController30handleAxisTitleChangedBySenderEP7QObject@Qt_5 5.10.1
 _ZN19QtDataVisualization20Abstract3DController31handleAxisLabelsChangedBySenderEP7QObject@Qt_5 5.10.1
 _ZN19QtDataVisualization20Abstract3DController31handlePendingGraphPositionQueryEv@Qt_5 5.10.1
 _ZN19QtDataVisualization20Abstract3DController31handleThemeBaseGradientsChangedERK5QListI15QLinearGradientE@Qt_5 5.10.1
 _ZN19QtDataVisualization20Abstract3DController31startRecordingRemovesAndInsertsEv@Qt_5 5.10.1
 _ZN19QtDataVisualization20Abstract3DController32handleAxisAutoAdjustRangeChangedEb@Qt_5 5.10.1
 _ZN19QtDataVisualization20Abstract3DController32handleAxisFormatterDirtyBySenderEP7QObject@Qt_5 5.10.1
 _ZN19QtDataVisualization20Abstract3DController32handleAxisSubSegmentCountChangedEi@Qt_5 5.10.1
 _ZN19QtDataVisualization20Abstract3DController32handleAxisTitleVisibilityChangedEb@Qt_5 5.10.1
 _ZN19QtDataVisualization20Abstract3DController33handleAxisReversedChangedBySenderEP7QObject@Qt_5 5.10.1
 _ZN19QtDataVisualization20Abstract3DController34handleAxisLabelAutoRotationChangedEf@Qt_5 5.10.1
 _ZN19QtDataVisualization20Abstract3DController35handleAxisTitleFixedChangedBySenderEP7QObject@Qt_5 5.10.1
 _ZN19QtDataVisualization20Abstract3DController36handleAxisLabelFormatChangedBySenderEP7QObject@Qt_5 5.10.1
 _ZN19QtDataVisualization20Abstract3DController37handleAxisSegmentCountChangedBySenderEP7QObject@Qt_5 5.10.1
 _ZN19QtDataVisualization20Abstract3DController37handleSeriesVisibilityChangedBySenderEP7QObject@Qt_5 5.10.1
 _ZN19QtDataVisualization20Abstract3DController37handleThemeMultiHighlightColorChangedERK6QColor@Qt_5 5.10.1
 _ZN19QtDataVisualization20Abstract3DController38handleThemeSingleHighlightColorChangedERK6QColor@Qt_5 5.10.1
 _ZN19QtDataVisualization20Abstract3DController40handleAxisSubSegmentCountChangedBySenderEP7QObject@Qt_5 5.10.1
 _ZN19QtDataVisualization20Abstract3DController40handleAxisTitleVisibilityChangedBySenderEP7QObject@Qt_5 5.10.1
 _ZN19QtDataVisualization20Abstract3DController40handleThemeMultiHighlightGradientChangedERK15QLinearGradient@Qt_5 5.10.1
 _ZN19QtDataVisualization20Abstract3DController41handleThemeSingleHighlightGradientChangedERK15QLinearGradient@Qt_5 5.10.1
 _ZN19QtDataVisualization20Abstract3DController42handleAxisLabelAutoRotationChangedBySenderEP7QObject@Qt_5 5.10.1
 _ZN19QtDataVisualization20Abstract3DController5sceneEv@Qt_5 5.10.1
 _ZN19QtDataVisualization20Abstract3DController6renderEj@Qt_5 5.10.1
 _ZN19QtDataVisualization20Abstract3DController7addAxisEPNS_15QAbstract3DAxisE@Qt_5 5.10.1
 _ZN19QtDataVisualization20Abstract3DController8addThemeEPNS_8Q3DThemeE@Qt_5 5.10.1
 _ZN19QtDataVisualization20Abstract3DController8setAxisXEPNS_15QAbstract3DAxisE@Qt_5 5.10.1
 _ZN19QtDataVisualization20Abstract3DController8setAxisYEPNS_15QAbstract3DAxisE@Qt_5 5.10.1
 _ZN19QtDataVisualization20Abstract3DController8setAxisZEPNS_15QAbstract3DAxisE@Qt_5 5.10.1
 _ZN19QtDataVisualization20Abstract3DController8setPolarEb@Qt_5 5.10.1
 _ZN19QtDataVisualization20Abstract3DController9addSeriesEPNS_17QAbstract3DSeriesE@Qt_5 5.10.1
 _ZN19QtDataVisualization20Abstract3DController9setLocaleERK7QLocale@Qt_5 5.10.1
 _ZN19QtDataVisualization20Abstract3DController9setMarginEd@Qt_5 5.10.1
 _ZN19QtDataVisualization20Abstract3DControllerC1E5QRectPNS_8Q3DSceneEP7QObject@Qt_5 5.10.1
 _ZN19QtDataVisualization20Abstract3DControllerC2E5QRectPNS_8Q3DSceneEP7QObject@Qt_5 5.10.1
 _ZN19QtDataVisualization20Abstract3DControllerD0Ev@Qt_5 5.10.1
 _ZN19QtDataVisualization20Abstract3DControllerD1Ev@Qt_5 5.10.1
 _ZN19QtDataVisualization20Abstract3DControllerD2Ev@Qt_5 5.10.1
 _ZN19QtDataVisualization20QTouch3DInputHandler10touchEventEP11QTouchEvent@Qt_5 5.10.1
 _ZN19QtDataVisualization20QTouch3DInputHandler11qt_metacallEN11QMetaObject4CallEiPPv@Qt_5 5.10.1
 _ZN19QtDataVisualization20QTouch3DInputHandler11qt_metacastEPKc@Qt_5 5.10.1
 _ZN19QtDataVisualization20QTouch3DInputHandler16staticMetaObjectE@Qt_5 5.10.1
 _ZN19QtDataVisualization20QTouch3DInputHandlerC1EP7QObject@Qt_5 5.10.1
 _ZN19QtDataVisualization20QTouch3DInputHandlerC2EP7QObject@Qt_5 5.10.1
 _ZN19QtDataVisualization20QTouch3DInputHandlerD0Ev@Qt_5 5.10.1
 _ZN19QtDataVisualization20QTouch3DInputHandlerD1Ev@Qt_5 5.10.1
 _ZN19QtDataVisualization20QTouch3DInputHandlerD2Ev@Qt_5 5.10.1
 _ZN19QtDataVisualization21QValue3DAxisFormatter11qt_metacallEN11QMetaObject4CallEiPPv@Qt_5 5.10.1
 _ZN19QtDataVisualization21QValue3DAxisFormatter11qt_metacastEPKc@Qt_5 5.10.1
 _ZN19QtDataVisualization21QValue3DAxisFormatter11recalculateEv@Qt_5 5.10.1
 _ZN19QtDataVisualization21QValue3DAxisFormatter12setAllowZeroEb@Qt_5 5.10.1
 _ZN19QtDataVisualization21QValue3DAxisFormatter16staticMetaObjectE@Qt_5 5.10.1
 _ZN19QtDataVisualization21QValue3DAxisFormatter17setAllowNegativesEb@Qt_5 5.10.1
 _ZN19QtDataVisualization21QValue3DAxisFormatter9markDirtyEb@Qt_5 5.10.1
 _ZN19QtDataVisualization21QValue3DAxisFormatter9setLocaleERK7QLocale@Qt_5 5.10.1
 _ZN19QtDataVisualization21QValue3DAxisFormatterC1EP7QObject@Qt_5 5.10.1
 _ZN19QtDataVisualization21QValue3DAxisFormatterC1EPNS_28QValue3DAxisFormatterPrivateEP7QObject@Qt_5 5.10.1
 _ZN19QtDataVisualization21QValue3DAxisFormatterC2EP7QObject@Qt_5 5.10.1
 _ZN19QtDataVisualization21QValue3DAxisFormatterC2EPNS_28QValue3DAxisFormatterPrivateEP7QObject@Qt_5 5.10.1
 _ZN19QtDataVisualization21QValue3DAxisFormatterD0Ev@Qt_5 5.10.1
 _ZN19QtDataVisualization21QValue3DAxisFormatterD1Ev@Qt_5 5.10.1
 _ZN19QtDataVisualization21QValue3DAxisFormatterD2Ev@Qt_5 5.10.1
 _ZN19QtDataVisualization22QItemModelBarDataProxy10setRowRoleERK7QString@Qt_5 5.10.1
 _ZN19QtDataVisualization22QItemModelBarDataProxy11qt_metacallEN11QMetaObject4CallEiPPv@Qt_5 5.10.1
 _ZN19QtDataVisualization22QItemModelBarDataProxy11qt_metacastEPKc@Qt_5 5.10.1
 _ZN19QtDataVisualization22QItemModelBarDataProxy12setItemModelEP18QAbstractItemModel@Qt_5 5.10.1
 _ZN19QtDataVisualization22QItemModelBarDataProxy12setValueRoleERK7QString@Qt_5 5.10.1
 _ZN19QtDataVisualization22QItemModelBarDataProxy13setColumnRoleERK7QString@Qt_5 5.10.1
 _ZN19QtDataVisualization22QItemModelBarDataProxy14rowRoleChangedERK7QString@Qt_5 5.10.1
 _ZN19QtDataVisualization22QItemModelBarDataProxy15setRotationRoleERK7QString@Qt_5 5.10.1
 _ZN19QtDataVisualization22QItemModelBarDataProxy16itemModelChangedEPK18QAbstractItemModel@Qt_5 5.10.1
 _ZN19QtDataVisualization22QItemModelBarDataProxy16rowCategoryIndexERK7QString@Qt_5 5.10.1
 _ZN19QtDataVisualization22QItemModelBarDataProxy16setRowCategoriesERK11QStringList@Qt_5 5.10.1
 _ZN19QtDataVisualization22QItemModelBarDataProxy16staticMetaObjectE@Qt_5 5.10.1
 _ZN19QtDataVisualization22QItemModelBarDataProxy16valueRoleChangedERK7QString@Qt_5 5.10.1
 _ZN19QtDataVisualization22QItemModelBarDataProxy17columnRoleChangedERK7QString@Qt_5 5.10.1
 _ZN19QtDataVisualization22QItemModelBarDataProxy17setRowRolePatternERK7QRegExp@Qt_5 5.10.1
 _ZN19QtDataVisualization22QItemModelBarDataProxy17setRowRoleReplaceERK7QString@Qt_5 5.10.1
 _ZN19QtDataVisualization22QItemModelBarDataProxy19columnCategoryIndexERK7QString@Qt_5 5.10.1
 _ZN19QtDataVisualization22QItemModelBarDataProxy19rotationRoleChangedERK7QString@Qt_5 5.10.1
 _ZN19QtDataVisualization22QItemModelBarDataProxy19setColumnCategoriesERK11QStringList@Qt_5 5.10.1
 _ZN19QtDataVisualization22QItemModelBarDataProxy19setValueRolePatternERK7QRegExp@Qt_5 5.10.1
 _ZN19QtDataVisualization22QItemModelBarDataProxy19setValueRoleReplaceERK7QString@Qt_5 5.10.1
 _ZN19QtDataVisualization22QItemModelBarDataProxy20rowCategoriesChangedEv@Qt_5 5.10.1
 _ZN19QtDataVisualization22QItemModelBarDataProxy20setAutoRowCategoriesEb@Qt_5 5.10.1
 _ZN19QtDataVisualization22QItemModelBarDataProxy20setColumnRolePatternERK7QRegExp@Qt_5 5.10.1
 _ZN19QtDataVisualization22QItemModelBarDataProxy20setColumnRoleReplaceERK7QString@Qt_5 5.10.1
 _ZN19QtDataVisualization22QItemModelBarDataProxy21rowRolePatternChangedERK7QRegExp@Qt_5 5.10.1
 _ZN19QtDataVisualization22QItemModelBarDataProxy21rowRoleReplaceChangedERK7QString@Qt_5 5.10.1
 _ZN19QtDataVisualization22QItemModelBarDataProxy21setMultiMatchBehaviorENS0_18MultiMatchBehaviorE@Qt_5 5.10.1
 _ZN19QtDataVisualization22QItemModelBarDataProxy21setUseModelCategoriesEb@Qt_5 5.10.1
 _ZN19QtDataVisualization22QItemModelBarDataProxy22setRotationRolePatternERK7QRegExp@Qt_5 5.10.1
 _ZN19QtDataVisualization22QItemModelBarDataProxy22setRotationRoleReplaceERK7QString@Qt_5 5.10.1
 _ZN19QtDataVisualization22QItemModelBarDataProxy23columnCategoriesChangedEv@Qt_5 5.10.1
 _ZN19QtDataVisualization22QItemModelBarDataProxy23setAutoColumnCategoriesEb@Qt_5 5.10.1
 _ZN19QtDataVisualization22QItemModelBarDataProxy23valueRolePatternChangedERK7QRegExp@Qt_5 5.10.1
 _ZN19QtDataVisualization22QItemModelBarDataProxy23valueRoleReplaceChangedERK7QString@Qt_5 5.10.1
 _ZN19QtDataVisualization22QItemModelBarDataProxy24autoRowCategoriesChangedEb@Qt_5 5.10.1
 _ZN19QtDataVisualization22QItemModelBarDataProxy24columnRolePatternChangedERK7QRegExp@Qt_5 5.10.1
 _ZN19QtDataVisualization22QItemModelBarDataProxy24columnRoleReplaceChangedERK7QString@Qt_5 5.10.1
 _ZN19QtDataVisualization22QItemModelBarDataProxy25multiMatchBehaviorChangedENS0_18MultiMatchBehaviorE@Qt_5 5.10.1
 _ZN19QtDataVisualization22QItemModelBarDataProxy25useModelCategoriesChangedEb@Qt_5 5.10.1
 _ZN19QtDataVisualization22QItemModelBarDataProxy26rotationRolePatternChangedERK7QRegExp@Qt_5 5.10.1
 _ZN19QtDataVisualization22QItemModelBarDataProxy26rotationRoleReplaceChangedERK7QString@Qt_5 5.10.1
 _ZN19QtDataVisualization22QItemModelBarDataProxy27autoColumnCategoriesChangedEb@Qt_5 5.10.1
 _ZN19QtDataVisualization22QItemModelBarDataProxy4dptrEv@Qt_5 5.10.1
 _ZN19QtDataVisualization22QItemModelBarDataProxy5remapERK7QStringS3_S3_S3_RK11QStringListS6_@Qt_5 5.10.1
 _ZN19QtDataVisualization22QItemModelBarDataProxyC1EP18QAbstractItemModelP7QObject@Qt_5 5.10.1
 _ZN19QtDataVisualization22QItemModelBarDataProxyC1EP18QAbstractItemModelRK7QStringP7QObject@Qt_5 5.10.1
 _ZN19QtDataVisualization22QItemModelBarDataProxyC1EP18QAbstractItemModelRK7QStringS5_S5_P7QObject@Qt_5 5.10.1
 _ZN19QtDataVisualization22QItemModelBarDataProxyC1EP18QAbstractItemModelRK7QStringS5_S5_RK11QStringListS8_P7QObject@Qt_5 5.10.1
 _ZN19QtDataVisualization22QItemModelBarDataProxyC1EP18QAbstractItemModelRK7QStringS5_S5_S5_P7QObject@Qt_5 5.10.1
 _ZN19QtDataVisualization22QItemModelBarDataProxyC1EP18QAbstractItemModelRK7QStringS5_S5_S5_RK11QStringListS8_P7QObject@Qt_5 5.10.1
 _ZN19QtDataVisualization22QItemModelBarDataProxyC1EP7QObject@Qt_5 5.10.1
 _ZN19QtDataVisualization22QItemModelBarDataProxyC2EP18QAbstractItemModelP7QObject@Qt_5 5.10.1
 _ZN19QtDataVisualization22QItemModelBarDataProxyC2EP18QAbstractItemModelRK7QStringP7QObject@Qt_5 5.10.1
 _ZN19QtDataVisualization22QItemModelBarDataProxyC2EP18QAbstractItemModelRK7QStringS5_S5_P7QObject@Qt_5 5.10.1
 _ZN19QtDataVisualization22QItemModelBarDataProxyC2EP18QAbstractItemModelRK7QStringS5_S5_RK11QStringListS8_P7QObject@Qt_5 5.10.1
 _ZN19QtDataVisualization22QItemModelBarDataProxyC2EP18QAbstractItemModelRK7QStringS5_S5_S5_P7QObject@Qt_5 5.10.1
 _ZN19QtDataVisualization22QItemModelBarDataProxyC2EP18QAbstractItemModelRK7QStringS5_S5_S5_RK11QStringListS8_P7QObject@Qt_5 5.10.1
 _ZN19QtDataVisualization22QItemModelBarDataProxyC2EP7QObject@Qt_5 5.10.1
 _ZN19QtDataVisualization22QItemModelBarDataProxyD0Ev@Qt_5 5.10.1
 _ZN19QtDataVisualization22QItemModelBarDataProxyD1Ev@Qt_5 5.10.1
 _ZN19QtDataVisualization22QItemModelBarDataProxyD2Ev@Qt_5 5.10.1
 _ZN19QtDataVisualization23QAbstract3DInputHandler10touchEventEP11QTouchEvent@Qt_5 5.10.1
 _ZN19QtDataVisualization23QAbstract3DInputHandler10wheelEventEP11QWheelEvent@Qt_5 5.10.1
 _ZN19QtDataVisualization23QAbstract3DInputHandler11qt_metacallEN11QMetaObject4CallEiPPv@Qt_5 5.10.1
 _ZN19QtDataVisualization23QAbstract3DInputHandler11qt_metacastEPKc@Qt_5 5.10.1
 _ZN19QtDataVisualization23QAbstract3DInputHandler12sceneChangedEPNS_8Q3DSceneE@Qt_5 5.10.1
 _ZN19QtDataVisualization23QAbstract3DInputHandler12setInputViewENS0_9InputViewE@Qt_5 5.10.1
 _ZN19QtDataVisualization23QAbstract3DInputHandler14mouseMoveEventEP11QMouseEventRK6QPoint@Qt_5 5.10.1
 _ZN19QtDataVisualization23QAbstract3DInputHandler15mousePressEventEP11QMouseEventRK6QPoint@Qt_5 5.10.1
 _ZN19QtDataVisualization23QAbstract3DInputHandler15positionChangedERK6QPoint@Qt_5 5.10.1
 _ZN19QtDataVisualization23QAbstract3DInputHandler15setPrevDistanceEi@Qt_5 5.10.1
 _ZN19QtDataVisualization23QAbstract3DInputHandler16inputViewChangedENS0_9InputViewE@Qt_5 5.10.1
 _ZN19QtDataVisualization23QAbstract3DInputHandler16setInputPositionERK6QPoint@Qt_5 5.10.1
 _ZN19QtDataVisualization23QAbstract3DInputHandler16staticMetaObjectE@Qt_5 5.10.1
 _ZN19QtDataVisualization23QAbstract3DInputHandler17mouseReleaseEventEP11QMouseEventRK6QPoint@Qt_5 5.10.1
 _ZN19QtDataVisualization23QAbstract3DInputHandler19setPreviousInputPosERK6QPoint@Qt_5 5.10.1
 _ZN19QtDataVisualization23QAbstract3DInputHandler21mouseDoubleClickEventEP11QMouseEvent@Qt_5 5.10.1
 _ZN19QtDataVisualization23QAbstract3DInputHandler8setSceneEPNS_8Q3DSceneE@Qt_5 5.10.1
 _ZN19QtDataVisualization23QAbstract3DInputHandlerC1EP7QObject@Qt_5 5.10.1
 _ZN19QtDataVisualization23QAbstract3DInputHandlerC2EP7QObject@Qt_5 5.10.1
 _ZN19QtDataVisualization23QAbstract3DInputHandlerD0Ev@Qt_5 5.10.1
 _ZN19QtDataVisualization23QAbstract3DInputHandlerD1Ev@Qt_5 5.10.1
 _ZN19QtDataVisualization23QAbstract3DInputHandlerD2Ev@Qt_5 5.10.1
 _ZN19QtDataVisualization24QLogValue3DAxisFormatter11baseChangedEd@Qt_5 5.10.1
 _ZN19QtDataVisualization24QLogValue3DAxisFormatter11qt_metacallEN11QMetaObject4CallEiPPv@Qt_5 5.10.1
 _ZN19QtDataVisualization24QLogValue3DAxisFormatter11qt_metacastEPKc@Qt_5 5.10.1
 _ZN19QtDataVisualization24QLogValue3DAxisFormatter11recalculateEv@Qt_5 5.10.1
 _ZN19QtDataVisualization24QLogValue3DAxisFormatter14setAutoSubGridEb@Qt_5 5.10.1
 _ZN19QtDataVisualization24QLogValue3DAxisFormatter16staticMetaObjectE@Qt_5 5.10.1
 _ZN19QtDataVisualization24QLogValue3DAxisFormatter17setShowEdgeLabelsEb@Qt_5 5.10.1
 _ZN19QtDataVisualization24QLogValue3DAxisFormatter18autoSubGridChangedEb@Qt_5 5.10.1
 _ZN19QtDataVisualization24QLogValue3DAxisFormatter21showEdgeLabelsChangedEb@Qt_5 5.10.1
 _ZN19QtDataVisualization24QLogValue3DAxisFormatter4dptrEv@Qt_5 5.10.1
 _ZN19QtDataVisualization24QLogValue3DAxisFormatter7setBaseEd@Qt_5 5.10.1
 _ZN19QtDataVisualization24QLogValue3DAxisFormatterC1EP7QObject@Qt_5 5.10.1
 _ZN19QtDataVisualization24QLogValue3DAxisFormatterC1EPNS_31QLogValue3DAxisFormatterPrivateEP7QObject@Qt_5 5.10.1
 _ZN19QtDataVisualization24QLogValue3DAxisFormatterC2EP7QObject@Qt_5 5.10.1
 _ZN19QtDataVisualization24QLogValue3DAxisFormatterC2EPNS_31QLogValue3DAxisFormatterPrivateEP7QObject@Qt_5 5.10.1
 _ZN19QtDataVisualization24QLogValue3DAxisFormatterD0Ev@Qt_5 5.10.1
 _ZN19QtDataVisualization24QLogValue3DAxisFormatterD1Ev@Qt_5 5.10.1
 _ZN19QtDataVisualization24QLogValue3DAxisFormatterD2Ev@Qt_5 5.10.1
 _ZN19QtDataVisualization26QHeightMapSurfaceDataProxy11qt_metacallEN11QMetaObject4CallEiPPv@Qt_5 5.10.1
 _ZN19QtDataVisualization26QHeightMapSurfaceDataProxy11qt_metacastEPKc@Qt_5 5.10.1
 _ZN19QtDataVisualization26QHeightMapSurfaceDataProxy12setHeightMapERK6QImage@Qt_5 5.10.1
 _ZN19QtDataVisualization26QHeightMapSurfaceDataProxy12setMaxXValueEf@Qt_5 5.10.1
 _ZN19QtDataVisualization26QHeightMapSurfaceDataProxy12setMaxZValueEf@Qt_5 5.10.1
 _ZN19QtDataVisualization26QHeightMapSurfaceDataProxy12setMinXValueEf@Qt_5 5.10.1
 _ZN19QtDataVisualization26QHeightMapSurfaceDataProxy12setMinZValueEf@Qt_5 5.10.1
 _ZN19QtDataVisualization26QHeightMapSurfaceDataProxy14setValueRangesEffff@Qt_5 5.10.1
 _ZN19QtDataVisualization26QHeightMapSurfaceDataProxy16heightMapChangedERK6QImage@Qt_5 5.10.1
 _ZN19QtDataVisualization26QHeightMapSurfaceDataProxy16maxXValueChangedEf@Qt_5 5.10.1
 _ZN19QtDataVisualization26QHeightMapSurfaceDataProxy16maxZValueChangedEf@Qt_5 5.10.1
 _ZN19QtDataVisualization26QHeightMapSurfaceDataProxy16minXValueChangedEf@Qt_5 5.10.1
 _ZN19QtDataVisualization26QHeightMapSurfaceDataProxy16minZValueChangedEf@Qt_5 5.10.1
 _ZN19QtDataVisualization26QHeightMapSurfaceDataProxy16setHeightMapFileERK7QString@Qt_5 5.10.1
 _ZN19QtDataVisualization26QHeightMapSurfaceDataProxy16staticMetaObjectE@Qt_5 5.10.1
 _ZN19QtDataVisualization26QHeightMapSurfaceDataProxy20heightMapFileChangedERK7QString@Qt_5 5.10.1
 _ZN19QtDataVisualization26QHeightMapSurfaceDataProxy4dptrEv@Qt_5 5.10.1
 _ZN19QtDataVisualization26QHeightMapSurfaceDataProxyC1EP7QObject@Qt_5 5.10.1
 _ZN19QtDataVisualization26QHeightMapSurfaceDataProxyC1EPNS_33QHeightMapSurfaceDataProxyPrivateEP7QObject@Qt_5 5.10.1
 _ZN19QtDataVisualization26QHeightMapSurfaceDataProxyC1ERK6QImageP7QObject@Qt_5 5.10.1
 _ZN19QtDataVisualization26QHeightMapSurfaceDataProxyC1ERK7QStringP7QObject@Qt_5 5.10.1
 _ZN19QtDataVisualization26QHeightMapSurfaceDataProxyC2EP7QObject@Qt_5 5.10.1
 _ZN19QtDataVisualization26QHeightMapSurfaceDataProxyC2EPNS_33QHeightMapSurfaceDataProxyPrivateEP7QObject@Qt_5 5.10.1
 _ZN19QtDataVisualization26QHeightMapSurfaceDataProxyC2ERK6QImageP7QObject@Qt_5 5.10.1
 _ZN19QtDataVisualization26QHeightMapSurfaceDataProxyC2ERK7QStringP7QObject@Qt_5 5.10.1
 _ZN19QtDataVisualization26QHeightMapSurfaceDataProxyD0Ev@Qt_5 5.10.1
 _ZN19QtDataVisualization26QHeightMapSurfaceDataProxyD1Ev@Qt_5 5.10.1
 _ZN19QtDataVisualization26QHeightMapSurfaceDataProxyD2Ev@Qt_5 5.10.1
 _ZN19QtDataVisualization26QItemModelScatterDataProxy11qt_metacallEN11QMetaObject4CallEiPPv@Qt_5 5.10.1
 _ZN19QtDataVisualization26QItemModelScatterDataProxy11qt_metacastEPKc@Qt_5 5.10.1
 _ZN19QtDataVisualization26QItemModelScatterDataProxy11setXPosRoleERK7QString@Qt_5 5.10.1
 _ZN19QtDataVisualization26QItemModelScatterDataProxy11setYPosRoleERK7QString@Qt_5 5.10.1
 _ZN19QtDataVisualization26QItemModelScatterDataProxy11setZPosRoleERK7QString@Qt_5 5.10.1
 _ZN19QtDataVisualization26QItemModelScatterDataProxy12setItemModelEP18QAbstractItemModel@Qt_5 5.10.1
 _ZN19QtDataVisualization26QItemModelScatterDataProxy15setRotationRoleERK7QString@Qt_5 5.10.1
 _ZN19QtDataVisualization26QItemModelScatterDataProxy15xPosRoleChangedERK7QString@Qt_5 5.10.1
 _ZN19QtDataVisualization26QItemModelScatterDataProxy15yPosRoleChangedERK7QString@Qt_5 5.10.1
 _ZN19QtDataVisualization26QItemModelScatterDataProxy15zPosRoleChangedERK7QString@Qt_5 5.10.1
 _ZN19QtDataVisualization26QItemModelScatterDataProxy16itemModelChangedEPK18QAbstractItemModel@Qt_5 5.10.1
 _ZN19QtDataVisualization26QItemModelScatterDataProxy16staticMetaObjectE@Qt_5 5.10.1
 _ZN19QtDataVisualization26QItemModelScatterDataProxy18setXPosRolePatternERK7QRegExp@Qt_5 5.10.1
 _ZN19QtDataVisualization26QItemModelScatterDataProxy18setXPosRoleReplaceERK7QString@Qt_5 5.10.1
 _ZN19QtDataVisualization26QItemModelScatterDataProxy18setYPosRolePatternERK7QRegExp@Qt_5 5.10.1
 _ZN19QtDataVisualization26QItemModelScatterDataProxy18setYPosRoleReplaceERK7QString@Qt_5 5.10.1
 _ZN19QtDataVisualization26QItemModelScatterDataProxy18setZPosRolePatternERK7QRegExp@Qt_5 5.10.1
 _ZN19QtDataVisualization26QItemModelScatterDataProxy18setZPosRoleReplaceERK7QString@Qt_5 5.10.1
 _ZN19QtDataVisualization26QItemModelScatterDataProxy19rotationRoleChangedERK7QString@Qt_5 5.10.1
 _ZN19QtDataVisualization26QItemModelScatterDataProxy22setRotationRolePatternERK7QRegExp@Qt_5 5.10.1
 _ZN19QtDataVisualization26QItemModelScatterDataProxy22setRotationRoleReplaceERK7QString@Qt_5 5.10.1
 _ZN19QtDataVisualization26QItemModelScatterDataProxy22xPosRolePatternChangedERK7QRegExp@Qt_5 5.10.1
 _ZN19QtDataVisualization26QItemModelScatterDataProxy22xPosRoleReplaceChangedERK7QString@Qt_5 5.10.1
 _ZN19QtDataVisualization26QItemModelScatterDataProxy22yPosRolePatternChangedERK7QRegExp@Qt_5 5.10.1
 _ZN19QtDataVisualization26QItemModelScatterDataProxy22yPosRoleReplaceChangedERK7QString@Qt_5 5.10.1
 _ZN19QtDataVisualization26QItemModelScatterDataProxy22zPosRolePatternChangedERK7QRegExp@Qt_5 5.10.1
 _ZN19QtDataVisualization26QItemModelScatterDataProxy22zPosRoleReplaceChangedERK7QString@Qt_5 5.10.1
 _ZN19QtDataVisualization26QItemModelScatterDataProxy26rotationRolePatternChangedERK7QRegExp@Qt_5 5.10.1
 _ZN19QtDataVisualization26QItemModelScatterDataProxy26rotationRoleReplaceChangedERK7QString@Qt_5 5.10.1
 _ZN19QtDataVisualization26QItemModelScatterDataProxy4dptrEv@Qt_5 5.10.1
 _ZN19QtDataVisualization26QItemModelScatterDataProxy5remapERK7QStringS3_S3_S3_@Qt_5 5.10.1
 _ZN19QtDataVisualization26QItemModelScatterDataProxyC1EP18QAbstractItemModelP7QObject@Qt_5 5.10.1
 _ZN19QtDataVisualization26QItemModelScatterDataProxyC1EP18QAbstractItemModelRK7QStringS5_S5_P7QObject@Qt_5 5.10.1
 _ZN19QtDataVisualization26QItemModelScatterDataProxyC1EP18QAbstractItemModelRK7QStringS5_S5_S5_P7QObject@Qt_5 5.10.1
 _ZN19QtDataVisualization26QItemModelScatterDataProxyC1EP7QObject@Qt_5 5.10.1
 _ZN19QtDataVisualization26QItemModelScatterDataProxyC2EP18QAbstractItemModelP7QObject@Qt_5 5.10.1
 _ZN19QtDataVisualization26QItemModelScatterDataProxyC2EP18QAbstractItemModelRK7QStringS5_S5_P7QObject@Qt_5 5.10.1
 _ZN19QtDataVisualization26QItemModelScatterDataProxyC2EP18QAbstractItemModelRK7QStringS5_S5_S5_P7QObject@Qt_5 5.10.1
 _ZN19QtDataVisualization26QItemModelScatterDataProxyC2EP7QObject@Qt_5 5.10.1
 _ZN19QtDataVisualization26QItemModelScatterDataProxyD0Ev@Qt_5 5.10.1
 _ZN19QtDataVisualization26QItemModelScatterDataProxyD1Ev@Qt_5 5.10.1
 _ZN19QtDataVisualization26QItemModelScatterDataProxyD2Ev@Qt_5 5.10.1
 _ZN19QtDataVisualization26QItemModelSurfaceDataProxy10setRowRoleERK7QString@Qt_5 5.10.1
 _ZN19QtDataVisualization26QItemModelSurfaceDataProxy11qt_metacallEN11QMetaObject4CallEiPPv@Qt_5 5.10.1
 _ZN19QtDataVisualization26QItemModelSurfaceDataProxy11qt_metacastEPKc@Qt_5 5.10.1
 _ZN19QtDataVisualization26QItemModelSurfaceDataProxy11setXPosRoleERK7QString@Qt_5 5.10.1
 _ZN19QtDataVisualization26QItemModelSurfaceDataProxy11setYPosRoleERK7QString@Qt_5 5.10.1
 _ZN19QtDataVisualization26QItemModelSurfaceDataProxy11setZPosRoleERK7QString@Qt_5 5.10.1
 _ZN19QtDataVisualization26QItemModelSurfaceDataProxy12setItemModelEP18QAbstractItemModel@Qt_5 5.10.1
 _ZN19QtDataVisualization26QItemModelSurfaceDataProxy13setColumnRoleERK7QString@Qt_5 5.10.1
 _ZN19QtDataVisualization26QItemModelSurfaceDataProxy14rowRoleChangedERK7QString@Qt_5 5.10.1
 _ZN19QtDataVisualization26QItemModelSurfaceDataProxy15xPosRoleChangedERK7QString@Qt_5 5.10.1
 _ZN19QtDataVisualization26QItemModelSurfaceDataProxy15yPosRoleChangedERK7QString@Qt_5 5.10.1
 _ZN19QtDataVisualization26QItemModelSurfaceDataProxy15zPosRoleChangedERK7QString@Qt_5 5.10.1
 _ZN19QtDataVisualization26QItemModelSurfaceDataProxy16itemModelChangedEPK18QAbstractItemModel@Qt_5 5.10.1
 _ZN19QtDataVisualization26QItemModelSurfaceDataProxy16rowCategoryIndexERK7QString@Qt_5 5.10.1
 _ZN19QtDataVisualization26QItemModelSurfaceDataProxy16setRowCategoriesERK11QStringList@Qt_5 5.10.1
 _ZN19QtDataVisualization26QItemModelSurfaceDataProxy16staticMetaObjectE@Qt_5 5.10.1
 _ZN19QtDataVisualization26QItemModelSurfaceDataProxy17columnRoleChangedERK7QString@Qt_5 5.10.1
 _ZN19QtDataVisualization26QItemModelSurfaceDataProxy17setRowRolePatternERK7QRegExp@Qt_5 5.10.1
 _ZN19QtDataVisualization26QItemModelSurfaceDataProxy17setRowRoleReplaceERK7QString@Qt_5 5.10.1
 _ZN19QtDataVisualization26QItemModelSurfaceDataProxy18setXPosRolePatternERK7QRegExp@Qt_5 5.10.1
 _ZN19QtDataVisualization26QItemModelSurfaceDataProxy18setXPosRoleReplaceERK7QString@Qt_5 5.10.1
 _ZN19QtDataVisualization26QItemModelSurfaceDataProxy18setYPosRolePatternERK7QRegExp@Qt_5 5.10.1
 _ZN19QtDataVisualization26QItemModelSurfaceDataProxy18setYPosRoleReplaceERK7QString@Qt_5 5.10.1
 _ZN19QtDataVisualization26QItemModelSurfaceDataProxy18setZPosRolePatternERK7QRegExp@Qt_5 5.10.1
 _ZN19QtDataVisualization26QItemModelSurfaceDataProxy18setZPosRoleReplaceERK7QString@Qt_5 5.10.1
 _ZN19QtDataVisualization26QItemModelSurfaceDataProxy19columnCategoryIndexERK7QString@Qt_5 5.10.1
 _ZN19QtDataVisualization26QItemModelSurfaceDataProxy19setColumnCategoriesERK11QStringList@Qt_5 5.10.1
 _ZN19QtDataVisualization26QItemModelSurfaceDataProxy20rowCategoriesChangedEv@Qt_5 5.10.1
 _ZN19QtDataVisualization26QItemModelSurfaceDataProxy20setAutoRowCategoriesEb@Qt_5 5.10.1
 _ZN19QtDataVisualization26QItemModelSurfaceDataProxy20setColumnRolePatternERK7QRegExp@Qt_5 5.10.1
 _ZN19QtDataVisualization26QItemModelSurfaceDataProxy20setColumnRoleReplaceERK7QString@Qt_5 5.10.1
 _ZN19QtDataVisualization26QItemModelSurfaceDataProxy21rowRolePatternChangedERK7QRegExp@Qt_5 5.10.1
 _ZN19QtDataVisualization26QItemModelSurfaceDataProxy21rowRoleReplaceChangedERK7QString@Qt_5 5.10.1
 _ZN19QtDataVisualization26QItemModelSurfaceDataProxy21setMultiMatchBehaviorENS0_18MultiMatchBehaviorE@Qt_5 5.10.1
 _ZN19QtDataVisualization26QItemModelSurfaceDataProxy21setUseModelCategoriesEb@Qt_5 5.10.1
 _ZN19QtDataVisualization26QItemModelSurfaceDataProxy22xPosRolePatternChangedERK7QRegExp@Qt_5 5.10.1
 _ZN19QtDataVisualization26QItemModelSurfaceDataProxy22xPosRoleReplaceChangedERK7QString@Qt_5 5.10.1
 _ZN19QtDataVisualization26QItemModelSurfaceDataProxy22yPosRolePatternChangedERK7QRegExp@Qt_5 5.10.1
 _ZN19QtDataVisualization26QItemModelSurfaceDataProxy22yPosRoleReplaceChangedERK7QString@Qt_5 5.10.1
 _ZN19QtDataVisualization26QItemModelSurfaceDataProxy22zPosRolePatternChangedERK7QRegExp@Qt_5 5.10.1
 _ZN19QtDataVisualization26QItemModelSurfaceDataProxy22zPosRoleReplaceChangedERK7QString@Qt_5 5.10.1
 _ZN19QtDataVisualization26QItemModelSurfaceDataProxy23columnCategoriesChangedEv@Qt_5 5.10.1
 _ZN19QtDataVisualization26QItemModelSurfaceDataProxy23setAutoColumnCategoriesEb@Qt_5 5.10.1
 _ZN19QtDataVisualization26QItemModelSurfaceDataProxy24autoRowCategoriesChangedEb@Qt_5 5.10.1
 _ZN19QtDataVisualization26QItemModelSurfaceDataProxy24columnRolePatternChangedERK7QRegExp@Qt_5 5.10.1
 _ZN19QtDataVisualization26QItemModelSurfaceDataProxy24columnRoleReplaceChangedERK7QString@Qt_5 5.10.1
 _ZN19QtDataVisualization26QItemModelSurfaceDataProxy25multiMatchBehaviorChangedENS0_18MultiMatchBehaviorE@Qt_5 5.10.1
 _ZN19QtDataVisualization26QItemModelSurfaceDataProxy25useModelCategoriesChangedEb@Qt_5 5.10.1
 _ZN19QtDataVisualization26QItemModelSurfaceDataProxy27autoColumnCategoriesChangedEb@Qt_5 5.10.1
 _ZN19QtDataVisualization26QItemModelSurfaceDataProxy4dptrEv@Qt_5 5.10.1
 _ZN19QtDataVisualization26QItemModelSurfaceDataProxy5remapERK7QStringS3_S3_S3_S3_RK11QStringListS6_@Qt_5 5.10.1
 _ZN19QtDataVisualization26QItemModelSurfaceDataProxyC1EP18QAbstractItemModelP7QObject@Qt_5 5.10.1
 _ZN19QtDataVisualization26QItemModelSurfaceDataProxyC1EP18QAbstractItemModelRK7QStringP7QObject@Qt_5 5.10.1
 _ZN19QtDataVisualization26QItemModelSurfaceDataProxyC1EP18QAbstractItemModelRK7QStringS5_S5_P7QObject@Qt_5 5.10.1
 _ZN19QtDataVisualization26QItemModelSurfaceDataProxyC1EP18QAbstractItemModelRK7QStringS5_S5_RK11QStringListS8_P7QObject@Qt_5 5.10.1
 _ZN19QtDataVisualization26QItemModelSurfaceDataProxyC1EP18QAbstractItemModelRK7QStringS5_S5_S5_S5_P7QObject@Qt_5 5.10.1
 _ZN19QtDataVisualization26QItemModelSurfaceDataProxyC1EP18QAbstractItemModelRK7QStringS5_S5_S5_S5_RK11QStringListS8_P7QObject@Qt_5 5.10.1
 _ZN19QtDataVisualization26QItemModelSurfaceDataProxyC1EP7QObject@Qt_5 5.10.1
 _ZN19QtDataVisualization26QItemModelSurfaceDataProxyC2EP18QAbstractItemModelP7QObject@Qt_5 5.10.1
 _ZN19QtDataVisualization26QItemModelSurfaceDataProxyC2EP18QAbstractItemModelRK7QStringP7QObject@Qt_5 5.10.1
 _ZN19QtDataVisualization26QItemModelSurfaceDataProxyC2EP18QAbstractItemModelRK7QStringS5_S5_P7QObject@Qt_5 5.10.1
 _ZN19QtDataVisualization26QItemModelSurfaceDataProxyC2EP18QAbstractItemModelRK7QStringS5_S5_RK11QStringListS8_P7QObject@Qt_5 5.10.1
 _ZN19QtDataVisualization26QItemModelSurfaceDataProxyC2EP18QAbstractItemModelRK7QStringS5_S5_S5_S5_P7QObject@Qt_5 5.10.1
 _ZN19QtDataVisualization26QItemModelSurfaceDataProxyC2EP18QAbstractItemModelRK7QStringS5_S5_S5_S5_RK11QStringListS8_P7QObject@Qt_5 5.10.1
 _ZN19QtDataVisualization26QItemModelSurfaceDataProxyC2EP7QObject@Qt_5 5.10.1
 _ZN19QtDataVisualization26QItemModelSurfaceDataProxyD0Ev@Qt_5 5.10.1
 _ZN19QtDataVisualization26QItemModelSurfaceDataProxyD1Ev@Qt_5 5.10.1
 _ZN19QtDataVisualization26QItemModelSurfaceDataProxyD2Ev@Qt_5 5.10.1
 _ZN19QtDataVisualization7Q3DBars10setRowAxisEPNS_15QCategory3DAxisE@Qt_5 5.10.1
 _ZN19QtDataVisualization7Q3DBars11qt_metacallEN11QMetaObject4CallEiPPv@Qt_5 5.10.1
 _ZN19QtDataVisualization7Q3DBars11qt_metacastEPKc@Qt_5 5.10.1
 _ZN19QtDataVisualization7Q3DBars11releaseAxisEPNS_15QAbstract3DAxisE@Qt_5 5.10.1
 _ZN19QtDataVisualization7Q3DBars12insertSeriesEiPNS_12QBar3DSeriesE@Qt_5 5.10.1
 _ZN19QtDataVisualization7Q3DBars12removeSeriesEPNS_12QBar3DSeriesE@Qt_5 5.10.1
 _ZN19QtDataVisualization7Q3DBars12setValueAxisEPNS_12QValue3DAxisE@Qt_5 5.10.1
 _ZN19QtDataVisualization7Q3DBars13setBarSpacingERK6QSizeF@Qt_5 5.10.1
 _ZN19QtDataVisualization7Q3DBars13setColumnAxisEPNS_15QCategory3DAxisE@Qt_5 5.10.1
 _ZN19QtDataVisualization7Q3DBars13setFloorLevelEf@Qt_5 5.10.1
 _ZN19QtDataVisualization7Q3DBars14rowAxisChangedEPNS_15QCategory3DAxisE@Qt_5 5.10.1
 _ZN19QtDataVisualization7Q3DBars15setBarThicknessEf@Qt_5 5.10.1
 _ZN19QtDataVisualization7Q3DBars16setPrimarySeriesEPNS_12QBar3DSeriesE@Qt_5 5.10.1
 _ZN19QtDataVisualization7Q3DBars16staticMetaObjectE@Qt_5 5.10.1
 _ZN19QtDataVisualization7Q3DBars16valueAxisChangedEPNS_12QValue3DAxisE@Qt_5 5.10.1
 _ZN19QtDataVisualization7Q3DBars17barSpacingChangedERK6QSizeF@Qt_5 5.10.1
 _ZN19QtDataVisualization7Q3DBars17columnAxisChangedEPNS_15QCategory3DAxisE@Qt_5 5.10.1
 _ZN19QtDataVisualization7Q3DBars17floorLevelChangedEf@Qt_5 5.10.1
 _ZN19QtDataVisualization7Q3DBars19barThicknessChangedEf@Qt_5 5.10.1
 _ZN19QtDataVisualization7Q3DBars20primarySeriesChangedEPNS_12QBar3DSeriesE@Qt_5 5.10.1
 _ZN19QtDataVisualization7Q3DBars21selectedSeriesChangedEPNS_12QBar3DSeriesE@Qt_5 5.10.1
 _ZN19QtDataVisualization7Q3DBars21setBarSpacingRelativeEb@Qt_5 5.10.1
 _ZN19QtDataVisualization7Q3DBars21setMultiSeriesUniformEb@Qt_5 5.10.1
 _ZN19QtDataVisualization7Q3DBars25barSpacingRelativeChangedEb@Qt_5 5.10.1
 _ZN19QtDataVisualization7Q3DBars25multiSeriesUniformChangedEb@Qt_5 5.10.1
 _ZN19QtDataVisualization7Q3DBars4dptrEv@Qt_5 5.10.1
 _ZN19QtDataVisualization7Q3DBars7addAxisEPNS_15QAbstract3DAxisE@Qt_5 5.10.1
 _ZN19QtDataVisualization7Q3DBars9addSeriesEPNS_12QBar3DSeriesE@Qt_5 5.10.1
 _ZN19QtDataVisualization7Q3DBarsC1EPK14QSurfaceFormatP7QWindow@Qt_5 5.10.1
 _ZN19QtDataVisualization7Q3DBarsC2EPK14QSurfaceFormatP7QWindow@Qt_5 5.10.1
 _ZN19QtDataVisualization7Q3DBarsD0Ev@Qt_5 5.10.1
 _ZN19QtDataVisualization7Q3DBarsD1Ev@Qt_5 5.10.1
 _ZN19QtDataVisualization7Q3DBarsD2Ev@Qt_5 5.10.1
 _ZN19QtDataVisualization8Q3DLight11qt_metacallEN11QMetaObject4CallEiPPv@Qt_5 5.10.1
 _ZN19QtDataVisualization8Q3DLight11qt_metacastEPKc@Qt_5 5.10.1
 _ZN19QtDataVisualization8Q3DLight14isAutoPositionEv@Qt_5 5.10.1
 _ZN19QtDataVisualization8Q3DLight15setAutoPositionEb@Qt_5 5.10.1
 _ZN19QtDataVisualization8Q3DLight16staticMetaObjectE@Qt_5 5.10.1
 _ZN19QtDataVisualization8Q3DLight19autoPositionChangedEb@Qt_5 5.10.1
 _ZN19QtDataVisualization8Q3DLightC1EP7QObject@Qt_5 5.10.1
 _ZN19QtDataVisualization8Q3DLightC2EP7QObject@Qt_5 5.10.1
 _ZN19QtDataVisualization8Q3DLightD0Ev@Qt_5 5.10.1
 _ZN19QtDataVisualization8Q3DLightD1Ev@Qt_5 5.10.1
 _ZN19QtDataVisualization8Q3DLightD2Ev@Qt_5 5.10.1
 _ZN19QtDataVisualization8Q3DScene11qt_metacallEN11QMetaObject4CallEiPPv@Qt_5 5.10.1
 _ZN19QtDataVisualization8Q3DScene11qt_metacastEPKc@Qt_5 5.10.1
 _ZN19QtDataVisualization8Q3DScene14setActiveLightEPNS_8Q3DLightE@Qt_5 5.10.1
 _ZN19QtDataVisualization8Q3DScene15setActiveCameraEPNS_9Q3DCameraE@Qt_5 5.10.1
 _ZN19QtDataVisualization8Q3DScene15viewportChangedERK5QRect@Qt_5 5.10.1
 _ZN19QtDataVisualization8Q3DScene16setSlicingActiveEb@Qt_5 5.10.1
 _ZN19QtDataVisualization8Q3DScene16staticMetaObjectE@Qt_5 5.10.1
 _ZN19QtDataVisualization8Q3DScene18activeLightChangedEPNS_8Q3DLightE@Qt_5 5.10.1
 _ZN19QtDataVisualization8Q3DScene19activeCameraChangedEPNS_9Q3DCameraE@Qt_5 5.10.1
 _ZN19QtDataVisualization8Q3DScene19setDevicePixelRatioEf@Qt_5 5.10.1
 _ZN19QtDataVisualization8Q3DScene20slicingActiveChangedEb@Qt_5 5.10.1
 _ZN19QtDataVisualization8Q3DScene21invalidSelectionPointEv@Qt_5 5.10.1
 _ZN19QtDataVisualization8Q3DScene21setGraphPositionQueryERK6QPoint@Qt_5 5.10.1
 _ZN19QtDataVisualization8Q3DScene21setPrimarySubViewportERK5QRect@Qt_5 5.10.1
 _ZN19QtDataVisualization8Q3DScene23devicePixelRatioChangedEf@Qt_5 5.10.1
 _ZN19QtDataVisualization8Q3DScene23isPointInPrimarySubViewERK6QPoint@Qt_5 5.10.1
 _ZN19QtDataVisualization8Q3DScene23setSecondarySubViewportERK5QRect@Qt_5 5.10.1
 _ZN19QtDataVisualization8Q3DScene24setSecondarySubviewOnTopEb@Qt_5 5.10.1
 _ZN19QtDataVisualization8Q3DScene25graphPositionQueryChangedERK6QPoint@Qt_5 5.10.1
 _ZN19QtDataVisualization8Q3DScene25isPointInSecondarySubViewERK6QPoint@Qt_5 5.10.1
 _ZN19QtDataVisualization8Q3DScene25primarySubViewportChangedERK5QRect@Qt_5 5.10.1
 _ZN19QtDataVisualization8Q3DScene25setSelectionQueryPositionERK6QPoint@Qt_5 5.10.1
 _ZN19QtDataVisualization8Q3DScene27secondarySubViewportChangedERK5QRect@Qt_5 5.10.1
 _ZN19QtDataVisualization8Q3DScene28secondarySubviewOnTopChangedEb@Qt_5 5.10.1
 _ZN19QtDataVisualization8Q3DScene29selectionQueryPositionChangedERK6QPoint@Qt_5 5.10.1
 _ZN19QtDataVisualization8Q3DSceneC1EP7QObject@Qt_5 5.10.1
 _ZN19QtDataVisualization8Q3DSceneC2EP7QObject@Qt_5 5.10.1
 _ZN19QtDataVisualization8Q3DSceneD0Ev@Qt_5 5.10.1
 _ZN19QtDataVisualization8Q3DSceneD1Ev@Qt_5 5.10.1
 _ZN19QtDataVisualization8Q3DSceneD2Ev@Qt_5 5.10.1
 _ZN19QtDataVisualization8Q3DTheme11fontChangedERK5QFont@Qt_5 5.10.1
 _ZN19QtDataVisualization8Q3DTheme11qt_metacallEN11QMetaObject4CallEiPPv@Qt_5 5.10.1
 _ZN19QtDataVisualization8Q3DTheme11qt_metacastEPKc@Qt_5 5.10.1
 _ZN19QtDataVisualization8Q3DTheme11typeChangedENS0_5ThemeE@Qt_5 5.10.1
 _ZN19QtDataVisualization8Q3DTheme13setBaseColorsERK5QListI6QColorE@Qt_5 5.10.1
 _ZN19QtDataVisualization8Q3DTheme13setColorStyleENS0_10ColorStyleE@Qt_5 5.10.1
 _ZN19QtDataVisualization8Q3DTheme13setLightColorERK6QColor@Qt_5 5.10.1
 _ZN19QtDataVisualization8Q3DTheme14setGridEnabledEb@Qt_5 5.10.1
 _ZN19QtDataVisualization8Q3DTheme14setWindowColorERK6QColor@Qt_5 5.10.1
 _ZN19QtDataVisualization8Q3DTheme16setBaseGradientsERK5QListI15QLinearGradientE@Qt_5 5.10.1
 _ZN19QtDataVisualization8Q3DTheme16setGridLineColorERK6QColor@Qt_5 5.10.1
 _ZN19QtDataVisualization8Q3DTheme16setLightStrengthEf@Qt_5 5.10.1
 _ZN19QtDataVisualization8Q3DTheme16staticMetaObjectE@Qt_5 5.10.1
 _ZN19QtDataVisualization8Q3DTheme17baseColorsChangedERK5QListI6QColorE@Qt_5 5.10.1
 _ZN19QtDataVisualization8Q3DTheme17colorStyleChangedENS0_10ColorStyleE@Qt_5 5.10.1
 _ZN19QtDataVisualization8Q3DTheme17lightColorChangedERK6QColor@Qt_5 5.10.1
 _ZN19QtDataVisualization8Q3DTheme17setLabelTextColorERK6QColor@Qt_5 5.10.1
 _ZN19QtDataVisualization8Q3DTheme18gridEnabledChangedEb@Qt_5 5.10.1
 _ZN19QtDataVisualization8Q3DTheme18setBackgroundColorERK6QColor@Qt_5 5.10.1
 _ZN19QtDataVisualization8Q3DTheme18windowColorChangedERK6QColor@Qt_5 5.10.1
 _ZN19QtDataVisualization8Q3DTheme20baseGradientsChangedERK5QListI15QLinearGradientE@Qt_5 5.10.1
 _ZN19QtDataVisualization8Q3DTheme20gridLineColorChangedERK6QColor@Qt_5 5.10.1
 _ZN19QtDataVisualization8Q3DTheme20lightStrengthChangedEf@Qt_5 5.10.1
 _ZN19QtDataVisualization8Q3DTheme20setBackgroundEnabledEb@Qt_5 5.10.1
 _ZN19QtDataVisualization8Q3DTheme21labelTextColorChangedERK6QColor@Qt_5 5.10.1
 _ZN19QtDataVisualization8Q3DTheme21setLabelBorderEnabledEb@Qt_5 5.10.1
 _ZN19QtDataVisualization8Q3DTheme22backgroundColorChangedERK6QColor@Qt_5 5.10.1
 _ZN19QtDataVisualization8Q3DTheme22setMultiHighlightColorERK6QColor@Qt_5 5.10.1
 _ZN19QtDataVisualization8Q3DTheme23setAmbientLightStrengthEf@Qt_5 5.10.1
 _ZN19QtDataVisualization8Q3DTheme23setLabelBackgroundColorERK6QColor@Qt_5 5.10.1
 _ZN19QtDataVisualization8Q3DTheme23setSingleHighlightColorERK6QColor@Qt_5 5.10.1
 _ZN19QtDataVisualization8Q3DTheme24backgroundEnabledChangedEb@Qt_5 5.10.1
 _ZN19QtDataVisualization8Q3DTheme25labelBorderEnabledChangedEb@Qt_5 5.10.1
 _ZN19QtDataVisualization8Q3DTheme25setHighlightLightStrengthEf@Qt_5 5.10.1
 _ZN19QtDataVisualization8Q3DTheme25setLabelBackgroundEnabledEb@Qt_5 5.10.1
 _ZN19QtDataVisualization8Q3DTheme25setMultiHighlightGradientERK15QLinearGradient@Qt_5 5.10.1
 _ZN19QtDataVisualization8Q3DTheme26multiHighlightColorChangedERK6QColor@Qt_5 5.10.1
 _ZN19QtDataVisualization8Q3DTheme26setSingleHighlightGradientERK15QLinearGradient@Qt_5 5.10.1
 _ZN19QtDataVisualization8Q3DTheme27ambientLightStrengthChangedEf@Qt_5 5.10.1
 _ZN19QtDataVisualization8Q3DTheme27labelBackgroundColorChangedERK6QColor@Qt_5 5.10.1
 _ZN19QtDataVisualization8Q3DTheme27singleHighlightColorChangedERK6QColor@Qt_5 5.10.1
 _ZN19QtDataVisualization8Q3DTheme29highlightLightStrengthChangedEf@Qt_5 5.10.1
 _ZN19QtDataVisualization8Q3DTheme29labelBackgroundEnabledChangedEb@Qt_5 5.10.1
 _ZN19QtDataVisualization8Q3DTheme29multiHighlightGradientChangedERK15QLinearGradient@Qt_5 5.10.1
 _ZN19QtDataVisualization8Q3DTheme30singleHighlightGradientChangedERK15QLinearGradient@Qt_5 5.10.1
 _ZN19QtDataVisualization8Q3DTheme7setFontERK5QFont@Qt_5 5.10.1
 _ZN19QtDataVisualization8Q3DTheme7setTypeENS0_5ThemeE@Qt_5 5.10.1
 _ZN19QtDataVisualization8Q3DThemeC1ENS0_5ThemeEP7QObject@Qt_5 5.10.1
 _ZN19QtDataVisualization8Q3DThemeC1EP7QObject@Qt_5 5.10.1
 _ZN19QtDataVisualization8Q3DThemeC1EPNS_15Q3DThemePrivateENS0_5ThemeEP7QObject@Qt_5 5.10.1
 _ZN19QtDataVisualization8Q3DThemeC2ENS0_5ThemeEP7QObject@Qt_5 5.10.1
 _ZN19QtDataVisualization8Q3DThemeC2EP7QObject@Qt_5 5.10.1
 _ZN19QtDataVisualization8Q3DThemeC2EPNS_15Q3DThemePrivateENS0_5ThemeEP7QObject@Qt_5 5.10.1
 _ZN19QtDataVisualization8Q3DThemeD0Ev@Qt_5 5.10.1
 _ZN19QtDataVisualization8Q3DThemeD1Ev@Qt_5 5.10.1
 _ZN19QtDataVisualization8Q3DThemeD2Ev@Qt_5 5.10.1
 _ZN19QtDataVisualization9Q3DCamera11qt_metacallEN11QMetaObject4CallEiPPv@Qt_5 5.10.1
 _ZN19QtDataVisualization9Q3DCamera11qt_metacastEPKc@Qt_5 5.10.1
 _ZN19QtDataVisualization9Q3DCamera12setXRotationEf@Qt_5 5.10.1
 _ZN19QtDataVisualization9Q3DCamera12setYRotationEf@Qt_5 5.10.1
 _ZN19QtDataVisualization9Q3DCamera12setZoomLevelEf@Qt_5 5.10.1
 _ZN19QtDataVisualization9Q3DCamera13targetChangedERK9QVector3D@Qt_5 5.10.1
 _ZN19QtDataVisualization9Q3DCamera14copyValuesFromERKNS_9Q3DObjectE@Qt_5 5.10.1
 _ZN19QtDataVisualization9Q3DCamera15setCameraPresetENS0_12CameraPresetE@Qt_5 5.10.1
 _ZN19QtDataVisualization9Q3DCamera15setMaxZoomLevelEf@Qt_5 5.10.1
 _ZN19QtDataVisualization9Q3DCamera15setMinZoomLevelEf@Qt_5 5.10.1
 _ZN19QtDataVisualization9Q3DCamera16setWrapXRotationEb@Qt_5 5.10.1
 _ZN19QtDataVisualization9Q3DCamera16setWrapYRotationEb@Qt_5 5.10.1
 _ZN19QtDataVisualization9Q3DCamera16staticMetaObjectE@Qt_5 5.10.1
 _ZN19QtDataVisualization9Q3DCamera16xRotationChangedEf@Qt_5 5.10.1
 _ZN19QtDataVisualization9Q3DCamera16yRotationChangedEf@Qt_5 5.10.1
 _ZN19QtDataVisualization9Q3DCamera16zoomLevelChangedEf@Qt_5 5.10.1
 _ZN19QtDataVisualization9Q3DCamera17setCameraPositionEfff@Qt_5 5.10.1
 _ZN19QtDataVisualization9Q3DCamera19cameraPresetChangedENS0_12CameraPresetE@Qt_5 5.10.1
 _ZN19QtDataVisualization9Q3DCamera19maxZoomLevelChangedEf@Qt_5 5.10.1
 _ZN19QtDataVisualization9Q3DCamera19minZoomLevelChangedEf@Qt_5 5.10.1
 _ZN19QtDataVisualization9Q3DCamera20wrapXRotationChangedEb@Qt_5 5.10.1
 _ZN19QtDataVisualization9Q3DCamera20wrapYRotationChangedEb@Qt_5 5.10.1
 _ZN19QtDataVisualization9Q3DCamera9setTargetERK9QVector3D@Qt_5 5.10.1
 _ZN19QtDataVisualization9Q3DCameraC1EP7QObject@Qt_5 5.10.1
 _ZN19QtDataVisualization9Q3DCameraC2EP7QObject@Qt_5 5.10.1
 _ZN19QtDataVisualization9Q3DCameraD0Ev@Qt_5 5.10.1
 _ZN19QtDataVisualization9Q3DCameraD1Ev@Qt_5 5.10.1
 _ZN19QtDataVisualization9Q3DCameraD2Ev@Qt_5 5.10.1
 _ZN19QtDataVisualization9Q3DObject11parentSceneEv@Qt_5 5.10.1
 _ZN19QtDataVisualization9Q3DObject11qt_metacallEN11QMetaObject4CallEiPPv@Qt_5 5.10.1
 _ZN19QtDataVisualization9Q3DObject11qt_metacastEPKc@Qt_5 5.10.1
 _ZN19QtDataVisualization9Q3DObject11setPositionERK9QVector3D@Qt_5 5.10.1
 _ZN19QtDataVisualization9Q3DObject14copyValuesFromERKS0_@Qt_5 5.10.1
 _ZN19QtDataVisualization9Q3DObject15positionChangedERK9QVector3D@Qt_5 5.10.1
 _ZN19QtDataVisualization9Q3DObject16staticMetaObjectE@Qt_5 5.10.1
 _ZN19QtDataVisualization9Q3DObject8setDirtyEb@Qt_5 5.10.1
 _ZN19QtDataVisualization9Q3DObjectC1EP7QObject@Qt_5 5.10.1
 _ZN19QtDataVisualization9Q3DObjectC2EP7QObject@Qt_5 5.10.1
 _ZN19QtDataVisualization9Q3DObjectD0Ev@Qt_5 5.10.1
 _ZN19QtDataVisualization9Q3DObjectD1Ev@Qt_5 5.10.1
 _ZN19QtDataVisualization9Q3DObjectD2Ev@Qt_5 5.10.1
 _ZNK19QtDataVisualization10Q3DScatter10metaObjectEv@Qt_5 5.10.1
 _ZNK19QtDataVisualization10Q3DScatter10seriesListEv@Qt_5 5.10.1
 _ZNK19QtDataVisualization10Q3DScatter14selectedSeriesEv@Qt_5 5.10.1
 _ZNK19QtDataVisualization10Q3DScatter4axesEv@Qt_5 5.10.1
 _ZNK19QtDataVisualization10Q3DScatter5axisXEv@Qt_5 5.10.1
 _ZNK19QtDataVisualization10Q3DScatter5axisYEv@Qt_5 5.10.1
 _ZNK19QtDataVisualization10Q3DScatter5axisZEv@Qt_5 5.10.1
 _ZNK19QtDataVisualization10Q3DScatter5dptrcEv@Qt_5 5.10.1
 _ZNK19QtDataVisualization10Q3DSurface10metaObjectEv@Qt_5 5.10.1
 _ZNK19QtDataVisualization10Q3DSurface10seriesListEv@Qt_5 5.10.1
 _ZNK19QtDataVisualization10Q3DSurface14selectedSeriesEv@Qt_5 5.10.1
 _ZNK19QtDataVisualization10Q3DSurface18flipHorizontalGridEv@Qt_5 5.10.1
 _ZNK19QtDataVisualization10Q3DSurface4axesEv@Qt_5 5.10.1
 _ZNK19QtDataVisualization10Q3DSurface5axisXEv@Qt_5 5.10.1
 _ZNK19QtDataVisualization10Q3DSurface5axisYEv@Qt_5 5.10.1
 _ZNK19QtDataVisualization10Q3DSurface5axisZEv@Qt_5 5.10.1
 _ZNK19QtDataVisualization10Q3DSurface5dptrcEv@Qt_5 5.10.1
 _ZNK19QtDataVisualization12QBar3DSeries10metaObjectEv@Qt_5 5.10.1
 _ZNK19QtDataVisualization12QBar3DSeries11selectedBarEv@Qt_5 5.10.1
 _ZNK19QtDataVisualization12QBar3DSeries5dptrcEv@Qt_5 5.10.1
 _ZNK19QtDataVisualization12QBar3DSeries9dataProxyEv@Qt_5 5.10.1
 _ZNK19QtDataVisualization12QBar3DSeries9meshAngleEv@Qt_5 5.10.1
 _ZNK19QtDataVisualization12QValue3DAxis10metaObjectEv@Qt_5 5.10.1
 _ZNK19QtDataVisualization12QValue3DAxis11labelFormatEv@Qt_5 5.10.1
 _ZNK19QtDataVisualization12QValue3DAxis12segmentCountEv@Qt_5 5.10.1
 _ZNK19QtDataVisualization12QValue3DAxis15subSegmentCountEv@Qt_5 5.10.1
 _ZNK19QtDataVisualization12QValue3DAxis5dptrcEv@Qt_5 5.10.1
 _ZNK19QtDataVisualization12QValue3DAxis8reversedEv@Qt_5 5.10.1
 _ZNK19QtDataVisualization12QValue3DAxis9formatterEv@Qt_5 5.10.1
 _ZNK19QtDataVisualization13QBarDataProxy10metaObjectEv@Qt_5 5.10.1
 _ZNK19QtDataVisualization13QBarDataProxy12columnLabelsEv@Qt_5 5.10.1
 _ZNK19QtDataVisualization13QBarDataProxy5arrayEv@Qt_5 5.10.1
 _ZNK19QtDataVisualization13QBarDataProxy5dptrcEv@Qt_5 5.10.1
 _ZNK19QtDataVisualization13QBarDataProxy5rowAtEi@Qt_5 5.10.1
 _ZNK19QtDataVisualization13QBarDataProxy6itemAtERK6QPoint@Qt_5 5.10.1
 _ZNK19QtDataVisualization13QBarDataProxy6itemAtEii@Qt_5 5.10.1
 _ZNK19QtDataVisualization13QBarDataProxy6seriesEv@Qt_5 5.10.1
 _ZNK19QtDataVisualization13QBarDataProxy8rowCountEv@Qt_5 5.10.1
 _ZNK19QtDataVisualization13QBarDataProxy9rowLabelsEv@Qt_5 5.10.1
 _ZNK19QtDataVisualization13QCustom3DItem10metaObjectEv@Qt_5 5.10.1
 _ZNK19QtDataVisualization13QCustom3DItem11textureFileEv@Qt_5 5.10.1
 _ZNK19QtDataVisualization13QCustom3DItem15isShadowCastingEv@Qt_5 5.10.1
 _ZNK19QtDataVisualization13QCustom3DItem17isScalingAbsoluteEv@Qt_5 5.10.1
 _ZNK19QtDataVisualization13QCustom3DItem18isPositionAbsoluteEv@Qt_5 5.10.1
 _ZNK19QtDataVisualization13QCustom3DItem7scalingEv@Qt_5 5.10.1
 _ZNK19QtDataVisualization13QCustom3DItem8meshFileEv@Qt_5 5.10.1
 _ZNK19QtDataVisualization13QCustom3DItem8positionEv@Qt_5 5.10.1
 _ZNK19QtDataVisualization13QCustom3DItem9isVisibleEv@Qt_5 5.10.1
 _ZNK19QtDataVisualization14Bars3DRenderer10metaObjectEv@Qt_5 5.10.1
 _ZNK19QtDataVisualization14QCustom3DLabel10metaObjectEv@Qt_5 5.10.1
 _ZNK19QtDataVisualization14QCustom3DLabel14isFacingCameraEv@Qt_5 5.10.1
 _ZNK19QtDataVisualization14QCustom3DLabel15backgroundColorEv@Qt_5 5.10.1
 _ZNK19QtDataVisualization14QCustom3DLabel15isBorderEnabledEv@Qt_5 5.10.1
 _ZNK19QtDataVisualization14QCustom3DLabel19isBackgroundEnabledEv@Qt_5 5.10.1
 _ZNK19QtDataVisualization14QCustom3DLabel4fontEv@Qt_5 5.10.1
 _ZNK19QtDataVisualization14QCustom3DLabel4textEv@Qt_5 5.10.1
 _ZNK19QtDataVisualization14QCustom3DLabel5dptrcEv@Qt_5 5.10.1
 _ZNK19QtDataVisualization14QCustom3DLabel9textColorEv@Qt_5 5.10.1
 _ZNK19QtDataVisualization15Q3DInputHandler10metaObjectEv@Qt_5 5.10.1
 _ZNK19QtDataVisualization15Q3DInputHandler13isZoomEnabledEv@Qt_5 5.10.1
 _ZNK19QtDataVisualization15Q3DInputHandler17isRotationEnabledEv@Qt_5 5.10.1
 _ZNK19QtDataVisualization15Q3DInputHandler18isSelectionEnabledEv@Qt_5 5.10.1
 _ZNK19QtDataVisualization15Q3DInputHandler21isZoomAtTargetEnabledEv@Qt_5 5.10.1
 _ZNK19QtDataVisualization15Q3DScenePrivate10metaObjectEv@Qt_5 5.10.1
 _ZNK19QtDataVisualization15Q3DScenePrivate10windowSizeEv@Qt_5 5.10.1
 _ZNK19QtDataVisualization15Q3DScenePrivate8isInAreaERK5QRectii@Qt_5 5.10.1
 _ZNK19QtDataVisualization15Q3DThemePrivate10metaObjectEv@Qt_5 5.10.1
 _ZNK19QtDataVisualization15QAbstract3DAxis10metaObjectEv@Qt_5 5.10.1
 _ZNK19QtDataVisualization15QAbstract3DAxis11orientationEv@Qt_5 5.10.1
 _ZNK19QtDataVisualization15QAbstract3DAxis12isTitleFixedEv@Qt_5 5.10.1
 _ZNK19QtDataVisualization15QAbstract3DAxis14isTitleVisibleEv@Qt_5 5.10.1
 _ZNK19QtDataVisualization15QAbstract3DAxis17isAutoAdjustRangeEv@Qt_5 5.10.1
 _ZNK19QtDataVisualization15QAbstract3DAxis17labelAutoRotationEv@Qt_5 5.10.1
 _ZNK19QtDataVisualization15QAbstract3DAxis3maxEv@Qt_5 5.10.1
 _ZNK19QtDataVisualization15QAbstract3DAxis3minEv@Qt_5 5.10.1
 _ZNK19QtDataVisualization15QAbstract3DAxis4typeEv@Qt_5 5.10.1
 _ZNK19QtDataVisualization15QAbstract3DAxis5titleEv@Qt_5 5.10.1
 _ZNK19QtDataVisualization15QAbstract3DAxis6labelsEv@Qt_5 5.10.1
 _ZNK19QtDataVisualization15QCategory3DAxis10metaObjectEv@Qt_5 5.10.1
 _ZNK19QtDataVisualization15QCategory3DAxis6labelsEv@Qt_5 5.10.1
 _ZNK19QtDataVisualization15QCustom3DVolume10colorTableEv@Qt_5 5.10.1
 _ZNK19QtDataVisualization15QCustom3DVolume10drawSlicesEv@Qt_5 5.10.1
 _ZNK19QtDataVisualization15QCustom3DVolume10metaObjectEv@Qt_5 5.10.1
 _ZNK19QtDataVisualization15QCustom3DVolume11sliceIndexXEv@Qt_5 5.10.1
 _ZNK19QtDataVisualization15QCustom3DVolume11sliceIndexYEv@Qt_5 5.10.1
 _ZNK19QtDataVisualization15QCustom3DVolume11sliceIndexZEv@Qt_5 5.10.1
 _ZNK19QtDataVisualization15QCustom3DVolume11textureDataEv@Qt_5 5.10.1
 _ZNK19QtDataVisualization15QCustom3DVolume12textureDepthEv@Qt_5 5.10.1
 _ZNK19QtDataVisualization15QCustom3DVolume12textureWidthEv@Qt_5 5.10.1
 _ZNK19QtDataVisualization15QCustom3DVolume13textureFormatEv@Qt_5 5.10.1
 _ZNK19QtDataVisualization15QCustom3DVolume13textureHeightEv@Qt_5 5.10.1
 _ZNK19QtDataVisualization15QCustom3DVolume14sliceFrameGapsEv@Qt_5 5.10.1
 _ZNK19QtDataVisualization15QCustom3DVolume15alphaMultiplierEv@Qt_5 5.10.1
 _ZNK19QtDataVisualization15QCustom3DVolume15drawSliceFramesEv@Qt_5 5.10.1
 _ZNK19QtDataVisualization15QCustom3DVolume15preserveOpacityEv@Qt_5 5.10.1
 _ZNK19QtDataVisualization15QCustom3DVolume15sliceFrameColorEv@Qt_5 5.10.1
 _ZNK19QtDataVisualization15QCustom3DVolume16sliceFrameWidthsEv@Qt_5 5.10.1
 _ZNK19QtDataVisualization15QCustom3DVolume16textureDataWidthEv@Qt_5 5.10.1
 _ZNK19QtDataVisualization15QCustom3DVolume16useHighDefShaderEv@Qt_5 5.10.1
 _ZNK19QtDataVisualization15QCustom3DVolume21sliceFrameThicknessesEv@Qt_5 5.10.1
 _ZNK19QtDataVisualization15QCustom3DVolume5dptrcEv@Qt_5 5.10.1
 _ZNK19QtDataVisualization16Bars3DController10floorLevelEv@Qt_5 5.10.1
 _ZNK19QtDataVisualization16Bars3DController10metaObjectEv@Qt_5 5.10.1
 _ZNK19QtDataVisualization16Bars3DController13primarySeriesEv@Qt_5 5.10.1
 _ZNK19QtDataVisualization16Bars3DController18multiSeriesScalingEv@Qt_5 5.10.1
 _ZNK19QtDataVisualization16QAbstract3DGraph10currentFpsEv@Qt_5 5.10.1
 _ZNK19QtDataVisualization16QAbstract3DGraph10hasContextEv@Qt_5 5.10.1
 _ZNK19QtDataVisualization16QAbstract3DGraph10measureFpsEv@Qt_5 5.10.1
 _ZNK19QtDataVisualization16QAbstract3DGraph10metaObjectEv@Qt_5 5.10.1
 _ZNK19QtDataVisualization16QAbstract3DGraph11activeThemeEv@Qt_5 5.10.1
 _ZNK19QtDataVisualization16QAbstract3DGraph11aspectRatioEv@Qt_5 5.10.1
 _ZNK19QtDataVisualization16QAbstract3DGraph11customItemsEv@Qt_5 5.10.1
 _ZNK19QtDataVisualization16QAbstract3DGraph12isReflectionEv@Qt_5 5.10.1
 _ZNK19QtDataVisualization16QAbstract3DGraph12reflectivityEv@Qt_5 5.10.1
 _ZNK19QtDataVisualization16QAbstract3DGraph12selectedAxisEv@Qt_5 5.10.1
 _ZNK19QtDataVisualization16QAbstract3DGraph13inputHandlersEv@Qt_5 5.10.1
 _ZNK19QtDataVisualization16QAbstract3DGraph13selectionModeEv@Qt_5 5.10.1
 _ZNK19QtDataVisualization16QAbstract3DGraph13shadowQualityEv@Qt_5 5.10.1
 _ZNK19QtDataVisualization16QAbstract3DGraph15selectedElementEv@Qt_5 5.10.1
 _ZNK19QtDataVisualization16QAbstract3DGraph16shadowsSupportedEv@Qt_5 5.10.1
 _ZNK19QtDataVisualization16QAbstract3DGraph17isOrthoProjectionEv@Qt_5 5.10.1
 _ZNK19QtDataVisualization16QAbstract3DGraph17optimizationHintsEv@Qt_5 5.10.1
 _ZNK19QtDataVisualization16QAbstract3DGraph17radialLabelOffsetEv@Qt_5 5.10.1
 _ZNK19QtDataVisualization16QAbstract3DGraph18activeInputHandlerEv@Qt_5 5.10.1
 _ZNK19QtDataVisualization16QAbstract3DGraph18selectedCustomItemEv@Qt_5 5.10.1
 _ZNK19QtDataVisualization16QAbstract3DGraph18selectedLabelIndexEv@Qt_5 5.10.1
 _ZNK19QtDataVisualization16QAbstract3DGraph20queriedGraphPositionEv@Qt_5 5.10.1
 _ZNK19QtDataVisualization16QAbstract3DGraph21horizontalAspectRatioEv@Qt_5 5.10.1
 _ZNK19QtDataVisualization16QAbstract3DGraph23selectedCustomItemIndexEv@Qt_5 5.10.1
 _ZNK19QtDataVisualization16QAbstract3DGraph5sceneEv@Qt_5 5.10.1
 _ZNK19QtDataVisualization16QAbstract3DGraph6localeEv@Qt_5 5.10.1
 _ZNK19QtDataVisualization16QAbstract3DGraph6marginEv@Qt_5 5.10.1
 _ZNK19QtDataVisualization16QAbstract3DGraph6themesEv@Qt_5 5.10.1
 _ZNK19QtDataVisualization16QAbstract3DGraph7isPolarEv@Qt_5 5.10.1
 _ZNK19QtDataVisualization16QScatter3DSeries10metaObjectEv@Qt_5 5.10.1
 _ZNK19QtDataVisualization16QScatter3DSeries12selectedItemEv@Qt_5 5.10.1
 _ZNK19QtDataVisualization16QScatter3DSeries5dptrcEv@Qt_5 5.10.1
 _ZNK19QtDataVisualization16QScatter3DSeries8itemSizeEv@Qt_5 5.10.1
 _ZNK19QtDataVisualization16QScatter3DSeries9dataProxyEv@Qt_5 5.10.1
 _ZNK19QtDataVisualization16QSurface3DSeries10metaObjectEv@Qt_5 5.10.1
 _ZNK19QtDataVisualization16QSurface3DSeries11textureFileEv@Qt_5 5.10.1
 _ZNK19QtDataVisualization16QSurface3DSeries13selectedPointEv@Qt_5 5.10.1
 _ZNK19QtDataVisualization16QSurface3DSeries20isFlatShadingEnabledEv@Qt_5 5.10.1
 _ZNK19QtDataVisualization16QSurface3DSeries22isFlatShadingSupportedEv@Qt_5 5.10.1
 _ZNK19QtDataVisualization16QSurface3DSeries5dptrcEv@Qt_5 5.10.1
 _ZNK19QtDataVisualization16QSurface3DSeries7textureEv@Qt_5 5.10.1
 _ZNK19QtDataVisualization16QSurface3DSeries8drawModeEv@Qt_5 5.10.1
 _ZNK19QtDataVisualization16QSurface3DSeries9dataProxyEv@Qt_5 5.10.1
 _ZNK19QtDataVisualization17QAbstract3DSeries10colorStyleEv@Qt_5 5.10.1
 _ZNK19QtDataVisualization17QAbstract3DSeries10metaObjectEv@Qt_5 5.10.1
 _ZNK19QtDataVisualization17QAbstract3DSeries12baseGradientEv@Qt_5 5.10.1
 _ZNK19QtDataVisualization17QAbstract3DSeries12isMeshSmoothEv@Qt_5 5.10.1
 _ZNK19QtDataVisualization17QAbstract3DSeries12meshRotationEv@Qt_5 5.10.1
 _ZNK19QtDataVisualization17QAbstract3DSeries15itemLabelFormatEv@Qt_5 5.10.1
 _ZNK19QtDataVisualization17QAbstract3DSeries15userDefinedMeshEv@Qt_5 5.10.1
 _ZNK19QtDataVisualization17QAbstract3DSeries18isItemLabelVisibleEv@Qt_5 5.10.1
 _ZNK19QtDataVisualization17QAbstract3DSeries19multiHighlightColorEv@Qt_5 5.10.1
 _ZNK19QtDataVisualization17QAbstract3DSeries20singleHighlightColorEv@Qt_5 5.10.1
 _ZNK19QtDataVisualization17QAbstract3DSeries22multiHighlightGradientEv@Qt_5 5.10.1
 _ZNK19QtDataVisualization17QAbstract3DSeries23singleHighlightGradientEv@Qt_5 5.10.1
 _ZNK19QtDataVisualization17QAbstract3DSeries4meshEv@Qt_5 5.10.1
 _ZNK19QtDataVisualization17QAbstract3DSeries4nameEv@Qt_5 5.10.1
 _ZNK19QtDataVisualization17QAbstract3DSeries4typeEv@Qt_5 5.10.1
 _ZNK19QtDataVisualization17QAbstract3DSeries9baseColorEv@Qt_5 5.10.1
 _ZNK19QtDataVisualization17QAbstract3DSeries9isVisibleEv@Qt_5 5.10.1
 _ZNK19QtDataVisualization17QAbstract3DSeries9itemLabelEv@Qt_5 5.10.1
 _ZNK19QtDataVisualization17QScatterDataProxy10metaObjectEv@Qt_5 5.10.1
 _ZNK19QtDataVisualization17QScatterDataProxy5arrayEv@Qt_5 5.10.1
 _ZNK19QtDataVisualization17QScatterDataProxy5dptrcEv@Qt_5 5.10.1
 _ZNK19QtDataVisualization17QScatterDataProxy6itemAtEi@Qt_5 5.10.1
 _ZNK19QtDataVisualization17QScatterDataProxy6seriesEv@Qt_5 5.10.1
 _ZNK19QtDataVisualization17QScatterDataProxy9itemCountEv@Qt_5 5.10.1
 _ZNK19QtDataVisualization17QSurfaceDataProxy10metaObjectEv@Qt_5 5.10.1
 _ZNK19QtDataVisualization17QSurfaceDataProxy11columnCountEv@Qt_5 5.10.1
 _ZNK19QtDataVisualization17QSurfaceDataProxy5arrayEv@Qt_5 5.10.1
 _ZNK19QtDataVisualization17QSurfaceDataProxy5dptrcEv@Qt_5 5.10.1
 _ZNK19QtDataVisualization17QSurfaceDataProxy6itemAtERK6QPoint@Qt_5 5.10.1
 _ZNK19QtDataVisualization17QSurfaceDataProxy6itemAtEii@Qt_5 5.10.1
 _ZNK19QtDataVisualization17QSurfaceDataProxy6seriesEv@Qt_5 5.10.1
 _ZNK19QtDataVisualization17QSurfaceDataProxy8rowCountEv@Qt_5 5.10.1
 _ZNK19QtDataVisualization17Scatter3DRenderer10metaObjectEv@Qt_5 5.10.1
 _ZNK19QtDataVisualization17Surface3DRenderer10metaObjectEv@Qt_5 5.10.1
 _ZNK19QtDataVisualization18QAbstractDataProxy10metaObjectEv@Qt_5 5.10.1
 _ZNK19QtDataVisualization18QAbstractDataProxy4typeEv@Qt_5 5.10.1
 _ZNK19QtDataVisualization19Scatter3DController10metaObjectEv@Qt_5 5.10.1
 _ZNK19QtDataVisualization19Surface3DController10metaObjectEv@Qt_5 5.10.1
 _ZNK19QtDataVisualization19Surface3DController18flipHorizontalGridEv@Qt_5 5.10.1
 _ZNK19QtDataVisualization20Abstract3DController10isOpenGLESEv@Qt_5 5.10.1
 _ZNK19QtDataVisualization20Abstract3DController10metaObjectEv@Qt_5 5.10.1
 _ZNK19QtDataVisualization20Abstract3DController10reflectionEv@Qt_5 5.10.1
 _ZNK19QtDataVisualization20Abstract3DController11activeThemeEv@Qt_5 5.10.1
 _ZNK19QtDataVisualization20Abstract3DController11customItemsEv@Qt_5 5.10.1
 _ZNK19QtDataVisualization20Abstract3DController12reflectivityEv@Qt_5 5.10.1
 _ZNK19QtDataVisualization20Abstract3DController12selectedAxisEv@Qt_5 5.10.1
 _ZNK19QtDataVisualization20Abstract3DController13inputHandlersEv@Qt_5 5.10.1
 _ZNK19QtDataVisualization20Abstract3DController13selectionModeEv@Qt_5 5.10.1
 _ZNK19QtDataVisualization20Abstract3DController13shadowQualityEv@Qt_5 5.10.1
 _ZNK19QtDataVisualization20Abstract3DController15isSlicingActiveEv@Qt_5 5.10.1
 _ZNK19QtDataVisualization20Abstract3DController15selectedElementEv@Qt_5 5.10.1
 _ZNK19QtDataVisualization20Abstract3DController16shadowsSupportedEv@Qt_5 5.10.1
 _ZNK19QtDataVisualization20Abstract3DController17isOrthoProjectionEv@Qt_5 5.10.1
 _ZNK19QtDataVisualization20Abstract3DController17optimizationHintsEv@Qt_5 5.10.1
 _ZNK19QtDataVisualization20Abstract3DController17radialLabelOffsetEv@Qt_5 5.10.1
 _ZNK19QtDataVisualization20Abstract3DController18selectedCustomItemEv@Qt_5 5.10.1
 _ZNK19QtDataVisualization20Abstract3DController18selectedLabelIndexEv@Qt_5 5.10.1
 _ZNK19QtDataVisualization20Abstract3DController20queriedGraphPositionEv@Qt_5 5.10.1
 _ZNK19QtDataVisualization20Abstract3DController21horizontalAspectRatioEv@Qt_5 5.10.1
 _ZNK19QtDataVisualization20Abstract3DController23selectedCustomItemIndexEv@Qt_5 5.10.1
 _ZNK19QtDataVisualization20Abstract3DController4axesEv@Qt_5 5.10.1
 _ZNK19QtDataVisualization20Abstract3DController5axisXEv@Qt_5 5.10.1
 _ZNK19QtDataVisualization20Abstract3DController5axisYEv@Qt_5 5.10.1
 _ZNK19QtDataVisualization20Abstract3DController5axisZEv@Qt_5 5.10.1
 _ZNK19QtDataVisualization20Abstract3DController6localeEv@Qt_5 5.10.1
 _ZNK19QtDataVisualization20Abstract3DController6marginEv@Qt_5 5.10.1
 _ZNK19QtDataVisualization20Abstract3DController6themesEv@Qt_5 5.10.1
 _ZNK19QtDataVisualization20Abstract3DController7isPolarEv@Qt_5 5.10.1
 _ZNK19QtDataVisualization20QTouch3DInputHandler10metaObjectEv@Qt_5 5.10.1
 _ZNK19QtDataVisualization21QValue3DAxisFormatter10metaObjectEv@Qt_5 5.10.1
 _ZNK19QtDataVisualization21QValue3DAxisFormatter10positionAtEf@Qt_5 5.10.1
 _ZNK19QtDataVisualization21QValue3DAxisFormatter12labelStringsEv@Qt_5 5.10.1
 _ZNK19QtDataVisualization21QValue3DAxisFormatter12populateCopyERS0_@Qt_5 5.10.1
 _ZNK19QtDataVisualization21QValue3DAxisFormatter13gridPositionsEv@Qt_5 5.10.1
 _ZNK19QtDataVisualization21QValue3DAxisFormatter14allowNegativesEv@Qt_5 5.10.1
 _ZNK19QtDataVisualization21QValue3DAxisFormatter14labelPositionsEv@Qt_5 5.10.1
 _ZNK19QtDataVisualization21QValue3DAxisFormatter14stringForValueEdRK7QString@Qt_5 5.10.1
 _ZNK19QtDataVisualization21QValue3DAxisFormatter16subGridPositionsEv@Qt_5 5.10.1
 _ZNK19QtDataVisualization21QValue3DAxisFormatter17createNewInstanceEv@Qt_5 5.10.1
 _ZNK19QtDataVisualization21QValue3DAxisFormatter4axisEv@Qt_5 5.10.1
 _ZNK19QtDataVisualization21QValue3DAxisFormatter6localeEv@Qt_5 5.10.1
 _ZNK19QtDataVisualization21QValue3DAxisFormatter7valueAtEf@Qt_5 5.10.1
 _ZNK19QtDataVisualization21QValue3DAxisFormatter9allowZeroEv@Qt_5 5.10.1
 _ZNK19QtDataVisualization22QItemModelBarDataProxy10columnRoleEv@Qt_5 5.10.1
 _ZNK19QtDataVisualization22QItemModelBarDataProxy10metaObjectEv@Qt_5 5.10.1
 _ZNK19QtDataVisualization22QItemModelBarDataProxy12rotationRoleEv@Qt_5 5.10.1
 _ZNK19QtDataVisualization22QItemModelBarDataProxy13rowCategoriesEv@Qt_5 5.10.1
 _ZNK19QtDataVisualization22QItemModelBarDataProxy14rowRolePatternEv@Qt_5 5.10.1
 _ZNK19QtDataVisualization22QItemModelBarDataProxy14rowRoleReplaceEv@Qt_5 5.10.1
 _ZNK19QtDataVisualization22QItemModelBarDataProxy16columnCategoriesEv@Qt_5 5.10.1
 _ZNK19QtDataVisualization22QItemModelBarDataProxy16valueRolePatternEv@Qt_5 5.10.1
 _ZNK19QtDataVisualization22QItemModelBarDataProxy16valueRoleReplaceEv@Qt_5 5.10.1
 _ZNK19QtDataVisualization22QItemModelBarDataProxy17autoRowCategoriesEv@Qt_5 5.10.1
 _ZNK19QtDataVisualization22QItemModelBarDataProxy17columnRolePatternEv@Qt_5 5.10.1
 _ZNK19QtDataVisualization22QItemModelBarDataProxy17columnRoleReplaceEv@Qt_5 5.10.1
 _ZNK19QtDataVisualization22QItemModelBarDataProxy18multiMatchBehaviorEv@Qt_5 5.10.1
 _ZNK19QtDataVisualization22QItemModelBarDataProxy18useModelCategoriesEv@Qt_5 5.10.1
 _ZNK19QtDataVisualization22QItemModelBarDataProxy19rotationRolePatternEv@Qt_5 5.10.1
 _ZNK19QtDataVisualization22QItemModelBarDataProxy19rotationRoleReplaceEv@Qt_5 5.10.1
 _ZNK19QtDataVisualization22QItemModelBarDataProxy20autoColumnCategoriesEv@Qt_5 5.10.1
 _ZNK19QtDataVisualization22QItemModelBarDataProxy5dptrcEv@Qt_5 5.10.1
 _ZNK19QtDataVisualization22QItemModelBarDataProxy7rowRoleEv@Qt_5 5.10.1
 _ZNK19QtDataVisualization22QItemModelBarDataProxy9itemModelEv@Qt_5 5.10.1
 _ZNK19QtDataVisualization22QItemModelBarDataProxy9valueRoleEv@Qt_5 5.10.1
 _ZNK19QtDataVisualization23QAbstract3DInputHandler10metaObjectEv@Qt_5 5.10.1
 _ZNK19QtDataVisualization23QAbstract3DInputHandler12prevDistanceEv@Qt_5 5.10.1
 _ZNK19QtDataVisualization23QAbstract3DInputHandler13inputPositionEv@Qt_5 5.10.1
 _ZNK19QtDataVisualization23QAbstract3DInputHandler16previousInputPosEv@Qt_5 5.10.1
 _ZNK19QtDataVisualization23QAbstract3DInputHandler5sceneEv@Qt_5 5.10.1
 _ZNK19QtDataVisualization23QAbstract3DInputHandler9inputViewEv@Qt_5 5.10.1
 _ZNK19QtDataVisualization24QLogValue3DAxisFormatter10metaObjectEv@Qt_5 5.10.1
 _ZNK19QtDataVisualization24QLogValue3DAxisFormatter10positionAtEf@Qt_5 5.10.1
 _ZNK19QtDataVisualization24QLogValue3DAxisFormatter11autoSubGridEv@Qt_5 5.10.1
 _ZNK19QtDataVisualization24QLogValue3DAxisFormatter12populateCopyERNS_21QValue3DAxisFormatterE@Qt_5 5.10.1
 _ZNK19QtDataVisualization24QLogValue3DAxisFormatter14showEdgeLabelsEv@Qt_5 5.10.1
 _ZNK19QtDataVisualization24QLogValue3DAxisFormatter17createNewInstanceEv@Qt_5 5.10.1
 _ZNK19QtDataVisualization24QLogValue3DAxisFormatter4baseEv@Qt_5 5.10.1
 _ZNK19QtDataVisualization24QLogValue3DAxisFormatter5dptrcEv@Qt_5 5.10.1
 _ZNK19QtDataVisualization24QLogValue3DAxisFormatter7valueAtEf@Qt_5 5.10.1
 _ZNK19QtDataVisualization26QHeightMapSurfaceDataProxy10metaObjectEv@Qt_5 5.10.1
 _ZNK19QtDataVisualization26QHeightMapSurfaceDataProxy13heightMapFileEv@Qt_5 5.10.1
 _ZNK19QtDataVisualization26QHeightMapSurfaceDataProxy5dptrcEv@Qt_5 5.10.1
 _ZNK19QtDataVisualization26QHeightMapSurfaceDataProxy9heightMapEv@Qt_5 5.10.1
 _ZNK19QtDataVisualization26QHeightMapSurfaceDataProxy9maxXValueEv@Qt_5 5.10.1
 _ZNK19QtDataVisualization26QHeightMapSurfaceDataProxy9maxZValueEv@Qt_5 5.10.1
 _ZNK19QtDataVisualization26QHeightMapSurfaceDataProxy9minXValueEv@Qt_5 5.10.1
 _ZNK19QtDataVisualization26QHeightMapSurfaceDataProxy9minZValueEv@Qt_5 5.10.1
 _ZNK19QtDataVisualization26QItemModelScatterDataProxy10metaObjectEv@Qt_5 5.10.1
 _ZNK19QtDataVisualization26QItemModelScatterDataProxy12rotationRoleEv@Qt_5 5.10.1
 _ZNK19QtDataVisualization26QItemModelScatterDataProxy15xPosRolePatternEv@Qt_5 5.10.1
 _ZNK19QtDataVisualization26QItemModelScatterDataProxy15xPosRoleReplaceEv@Qt_5 5.10.1
 _ZNK19QtDataVisualization26QItemModelScatterDataProxy15yPosRolePatternEv@Qt_5 5.10.1
 _ZNK19QtDataVisualization26QItemModelScatterDataProxy15yPosRoleReplaceEv@Qt_5 5.10.1
 _ZNK19QtDataVisualization26QItemModelScatterDataProxy15zPosRolePatternEv@Qt_5 5.10.1
 _ZNK19QtDataVisualization26QItemModelScatterDataProxy15zPosRoleReplaceEv@Qt_5 5.10.1
 _ZNK19QtDataVisualization26QItemModelScatterDataProxy19rotationRolePatternEv@Qt_5 5.10.1
 _ZNK19QtDataVisualization26QItemModelScatterDataProxy19rotationRoleReplaceEv@Qt_5 5.10.1
 _ZNK19QtDataVisualization26QItemModelScatterDataProxy5dptrcEv@Qt_5 5.10.1
 _ZNK19QtDataVisualization26QItemModelScatterDataProxy8xPosRoleEv@Qt_5 5.10.1
 _ZNK19QtDataVisualization26QItemModelScatterDataProxy8yPosRoleEv@Qt_5 5.10.1
 _ZNK19QtDataVisualization26QItemModelScatterDataProxy8zPosRoleEv@Qt_5 5.10.1
 _ZNK19QtDataVisualization26QItemModelScatterDataProxy9itemModelEv@Qt_5 5.10.1
 _ZNK19QtDataVisualization26QItemModelSurfaceDataProxy10columnRoleEv@Qt_5 5.10.1
 _ZNK19QtDataVisualization26QItemModelSurfaceDataProxy10metaObjectEv@Qt_5 5.10.1
 _ZNK19QtDataVisualization26QItemModelSurfaceDataProxy13rowCategoriesEv@Qt_5 5.10.1
 _ZNK19QtDataVisualization26QItemModelSurfaceDataProxy14rowRolePatternEv@Qt_5 5.10.1
 _ZNK19QtDataVisualization26QItemModelSurfaceDataProxy14rowRoleReplaceEv@Qt_5 5.10.1
 _ZNK19QtDataVisualization26QItemModelSurfaceDataProxy15xPosRolePatternEv@Qt_5 5.10.1
 _ZNK19QtDataVisualization26QItemModelSurfaceDataProxy15xPosRoleReplaceEv@Qt_5 5.10.1
 _ZNK19QtDataVisualization26QItemModelSurfaceDataProxy15yPosRolePatternEv@Qt_5 5.10.1
 _ZNK19QtDataVisualization26QItemModelSurfaceDataProxy15yPosRoleReplaceEv@Qt_5 5.10.1
 _ZNK19QtDataVisualization26QItemModelSurfaceDataProxy15zPosRolePatternEv@Qt_5 5.10.1
 _ZNK19QtDataVisualization26QItemModelSurfaceDataProxy15zPosRoleReplaceEv@Qt_5 5.10.1
 _ZNK19QtDataVisualization26QItemModelSurfaceDataProxy16columnCategoriesEv@Qt_5 5.10.1
 _ZNK19QtDataVisualization26QItemModelSurfaceDataProxy17autoRowCategoriesEv@Qt_5 5.10.1
 _ZNK19QtDataVisualization26QItemModelSurfaceDataProxy17columnRolePatternEv@Qt_5 5.10.1
 _ZNK19QtDataVisualization26QItemModelSurfaceDataProxy17columnRoleReplaceEv@Qt_5 5.10.1
 _ZNK19QtDataVisualization26QItemModelSurfaceDataProxy18multiMatchBehaviorEv@Qt_5 5.10.1
 _ZNK19QtDataVisualization26QItemModelSurfaceDataProxy18useModelCategoriesEv@Qt_5 5.10.1
 _ZNK19QtDataVisualization26QItemModelSurfaceDataProxy20autoColumnCategoriesEv@Qt_5 5.10.1
 _ZNK19QtDataVisualization26QItemModelSurfaceDataProxy5dptrcEv@Qt_5 5.10.1
 _ZNK19QtDataVisualization26QItemModelSurfaceDataProxy7rowRoleEv@Qt_5 5.10.1
 _ZNK19QtDataVisualization26QItemModelSurfaceDataProxy8xPosRoleEv@Qt_5 5.10.1
 _ZNK19QtDataVisualization26QItemModelSurfaceDataProxy8yPosRoleEv@Qt_5 5.10.1
 _ZNK19QtDataVisualization26QItemModelSurfaceDataProxy8zPosRoleEv@Qt_5 5.10.1
 _ZNK19QtDataVisualization26QItemModelSurfaceDataProxy9itemModelEv@Qt_5 5.10.1
 _ZNK19QtDataVisualization7Q3DBars10barSpacingEv@Qt_5 5.10.1
 _ZNK19QtDataVisualization7Q3DBars10columnAxisEv@Qt_5 5.10.1
 _ZNK19QtDataVisualization7Q3DBars10floorLevelEv@Qt_5 5.10.1
 _ZNK19QtDataVisualization7Q3DBars10metaObjectEv@Qt_5 5.10.1
 _ZNK19QtDataVisualization7Q3DBars10seriesListEv@Qt_5 5.10.1
 _ZNK19QtDataVisualization7Q3DBars12barThicknessEv@Qt_5 5.10.1
 _ZNK19QtDataVisualization7Q3DBars13primarySeriesEv@Qt_5 5.10.1
 _ZNK19QtDataVisualization7Q3DBars14selectedSeriesEv@Qt_5 5.10.1
 _ZNK19QtDataVisualization7Q3DBars20isBarSpacingRelativeEv@Qt_5 5.10.1
 _ZNK19QtDataVisualization7Q3DBars20isMultiSeriesUniformEv@Qt_5 5.10.1
 _ZNK19QtDataVisualization7Q3DBars4axesEv@Qt_5 5.10.1
 _ZNK19QtDataVisualization7Q3DBars5dptrcEv@Qt_5 5.10.1
 _ZNK19QtDataVisualization7Q3DBars7rowAxisEv@Qt_5 5.10.1
 _ZNK19QtDataVisualization7Q3DBars9valueAxisEv@Qt_5 5.10.1
 _ZNK19QtDataVisualization8Q3DLight10metaObjectEv@Qt_5 5.10.1
 _ZNK19QtDataVisualization8Q3DScene10metaObjectEv@Qt_5 5.10.1
 _ZNK19QtDataVisualization8Q3DScene11activeLightEv@Qt_5 5.10.1
 _ZNK19QtDataVisualization8Q3DScene12activeCameraEv@Qt_5 5.10.1
 _ZNK19QtDataVisualization8Q3DScene15isSlicingActiveEv@Qt_5 5.10.1
 _ZNK19QtDataVisualization8Q3DScene16devicePixelRatioEv@Qt_5 5.10.1
 _ZNK19QtDataVisualization8Q3DScene18graphPositionQueryEv@Qt_5 5.10.1
 _ZNK19QtDataVisualization8Q3DScene18primarySubViewportEv@Qt_5 5.10.1
 _ZNK19QtDataVisualization8Q3DScene20secondarySubViewportEv@Qt_5 5.10.1
 _ZNK19QtDataVisualization8Q3DScene22selectionQueryPositionEv@Qt_5 5.10.1
 _ZNK19QtDataVisualization8Q3DScene23isSecondarySubviewOnTopEv@Qt_5 5.10.1
 _ZNK19QtDataVisualization8Q3DScene8viewportEv@Qt_5 5.10.1
 _ZNK19QtDataVisualization8Q3DTheme10baseColorsEv@Qt_5 5.10.1
 _ZNK19QtDataVisualization8Q3DTheme10colorStyleEv@Qt_5 5.10.1
 _ZNK19QtDataVisualization8Q3DTheme10lightColorEv@Qt_5 5.10.1
 _ZNK19QtDataVisualization8Q3DTheme10metaObjectEv@Qt_5 5.10.1
 _ZNK19QtDataVisualization8Q3DTheme11windowColorEv@Qt_5 5.10.1
 _ZNK19QtDataVisualization8Q3DTheme13baseGradientsEv@Qt_5 5.10.1
 _ZNK19QtDataVisualization8Q3DTheme13gridLineColorEv@Qt_5 5.10.1
 _ZNK19QtDataVisualization8Q3DTheme13isGridEnabledEv@Qt_5 5.10.1
 _ZNK19QtDataVisualization8Q3DTheme13lightStrengthEv@Qt_5 5.10.1
 _ZNK19QtDataVisualization8Q3DTheme14labelTextColorEv@Qt_5 5.10.1
 _ZNK19QtDataVisualization8Q3DTheme15backgroundColorEv@Qt_5 5.10.1
 _ZNK19QtDataVisualization8Q3DTheme19isBackgroundEnabledEv@Qt_5 5.10.1
 _ZNK19QtDataVisualization8Q3DTheme19multiHighlightColorEv@Qt_5 5.10.1
 _ZNK19QtDataVisualization8Q3DTheme20ambientLightStrengthEv@Qt_5 5.10.1
 _ZNK19QtDataVisualization8Q3DTheme20isLabelBorderEnabledEv@Qt_5 5.10.1
 _ZNK19QtDataVisualization8Q3DTheme20labelBackgroundColorEv@Qt_5 5.10.1
 _ZNK19QtDataVisualization8Q3DTheme20singleHighlightColorEv@Qt_5 5.10.1
 _ZNK19QtDataVisualization8Q3DTheme22highlightLightStrengthEv@Qt_5 5.10.1
 _ZNK19QtDataVisualization8Q3DTheme22multiHighlightGradientEv@Qt_5 5.10.1
 _ZNK19QtDataVisualization8Q3DTheme23singleHighlightGradientEv@Qt_5 5.10.1
 _ZNK19QtDataVisualization8Q3DTheme24isLabelBackgroundEnabledEv@Qt_5 5.10.1
 _ZNK19QtDataVisualization8Q3DTheme4fontEv@Qt_5 5.10.1
 _ZNK19QtDataVisualization8Q3DTheme4typeEv@Qt_5 5.10.1
 _ZNK19QtDataVisualization9Q3DCamera10metaObjectEv@Qt_5 5.10.1
 _ZNK19QtDataVisualization9Q3DCamera12cameraPresetEv@Qt_5 5.10.1
 _ZNK19QtDataVisualization9Q3DCamera12maxZoomLevelEv@Qt_5 5.10.1
 _ZNK19QtDataVisualization9Q3DCamera12minZoomLevelEv@Qt_5 5.10.1
 _ZNK19QtDataVisualization9Q3DCamera13wrapXRotationEv@Qt_5 5.10.1
 _ZNK19QtDataVisualization9Q3DCamera13wrapYRotationEv@Qt_5 5.10.1
 _ZNK19QtDataVisualization9Q3DCamera6targetEv@Qt_5 5.10.1
 _ZNK19QtDataVisualization9Q3DCamera9xRotationEv@Qt_5 5.10.1
 _ZNK19QtDataVisualization9Q3DCamera9yRotationEv@Qt_5 5.10.1
 _ZNK19QtDataVisualization9Q3DCamera9zoomLevelEv@Qt_5 5.10.1
 _ZNK19QtDataVisualization9Q3DObject10metaObjectEv@Qt_5 5.10.1
 _ZNK19QtDataVisualization9Q3DObject7isDirtyEv@Qt_5 5.10.1
 _ZNK19QtDataVisualization9Q3DObject8positionEv@Qt_5 5.10.1
 _ZTI16QOpenGLFunctions@Qt_5 5.10.1
 _ZTIN19QtDataVisualization10Q3DScatterE@Qt_5 5.10.1
 _ZTIN19QtDataVisualization10Q3DSurfaceE@Qt_5 5.10.1
 _ZTIN19QtDataVisualization12QBar3DSeriesE@Qt_5 5.10.1
 _ZTIN19QtDataVisualization12QValue3DAxisE@Qt_5 5.10.1
 _ZTIN19QtDataVisualization13QBarDataProxyE@Qt_5 5.10.1
 _ZTIN19QtDataVisualization13QCustom3DItemE@Qt_5 5.10.1
 _ZTIN19QtDataVisualization14Bars3DRendererE@Qt_5 5.10.1
 _ZTIN19QtDataVisualization14QCustom3DLabelE@Qt_5 5.10.1
 _ZTIN19QtDataVisualization15Q3DInputHandlerE@Qt_5 5.10.1
 _ZTIN19QtDataVisualization15Q3DScenePrivateE@Qt_5 5.10.1
 _ZTIN19QtDataVisualization15Q3DThemePrivateE@Qt_5 5.10.1
 _ZTIN19QtDataVisualization15QAbstract3DAxisE@Qt_5 5.10.1
 _ZTIN19QtDataVisualization15QCategory3DAxisE@Qt_5 5.10.1
 _ZTIN19QtDataVisualization15QCustom3DVolumeE@Qt_5 5.10.1
 _ZTIN19QtDataVisualization16Bars3DControllerE@Qt_5 5.10.1
 _ZTIN19QtDataVisualization16QAbstract3DGraphE@Qt_5 5.10.1
 _ZTIN19QtDataVisualization16QScatter3DSeriesE@Qt_5 5.10.1
 _ZTIN19QtDataVisualization16QSurface3DSeriesE@Qt_5 5.10.1
 _ZTIN19QtDataVisualization17QAbstract3DSeriesE@Qt_5 5.10.1
 _ZTIN19QtDataVisualization17QScatterDataProxyE@Qt_5 5.10.1
 _ZTIN19QtDataVisualization17QSurfaceDataProxyE@Qt_5 5.10.1
 _ZTIN19QtDataVisualization17Scatter3DRendererE@Qt_5 5.10.1
 _ZTIN19QtDataVisualization17Surface3DRendererE@Qt_5 5.10.1
 _ZTIN19QtDataVisualization18QAbstractDataProxyE@Qt_5 5.10.1
 _ZTIN19QtDataVisualization19Scatter3DControllerE@Qt_5 5.10.1
 _ZTIN19QtDataVisualization19Surface3DControllerE@Qt_5 5.10.1
 _ZTIN19QtDataVisualization20Abstract3DControllerE@Qt_5 5.10.1
 _ZTIN19QtDataVisualization20QTouch3DInputHandlerE@Qt_5 5.10.1
 _ZTIN19QtDataVisualization21QValue3DAxisFormatterE@Qt_5 5.10.1
 _ZTIN19QtDataVisualization22QItemModelBarDataProxyE@Qt_5 5.10.1
 _ZTIN19QtDataVisualization23QAbstract3DInputHandlerE@Qt_5 5.10.1
 _ZTIN19QtDataVisualization24QLogValue3DAxisFormatterE@Qt_5 5.10.1
 _ZTIN19QtDataVisualization26QHeightMapSurfaceDataProxyE@Qt_5 5.10.1
 _ZTIN19QtDataVisualization26QItemModelScatterDataProxyE@Qt_5 5.10.1
 _ZTIN19QtDataVisualization26QItemModelSurfaceDataProxyE@Qt_5 5.10.1
 _ZTIN19QtDataVisualization7Q3DBarsE@Qt_5 5.10.1
 _ZTIN19QtDataVisualization8Q3DLightE@Qt_5 5.10.1
 _ZTIN19QtDataVisualization8Q3DSceneE@Qt_5 5.10.1
 _ZTIN19QtDataVisualization8Q3DThemeE@Qt_5 5.10.1
 _ZTIN19QtDataVisualization9Q3DCameraE@Qt_5 5.10.1
 _ZTIN19QtDataVisualization9Q3DObjectE@Qt_5 5.10.1
 _ZTS16QOpenGLFunctions@Qt_5 5.10.1
 _ZTSN19QtDataVisualization10Q3DScatterE@Qt_5 5.10.1
 _ZTSN19QtDataVisualization10Q3DSurfaceE@Qt_5 5.10.1
 _ZTSN19QtDataVisualization12QBar3DSeriesE@Qt_5 5.10.1
 _ZTSN19QtDataVisualization12QValue3DAxisE@Qt_5 5.10.1
 _ZTSN19QtDataVisualization13QBarDataProxyE@Qt_5 5.10.1
 _ZTSN19QtDataVisualization13QCustom3DItemE@Qt_5 5.10.1
 _ZTSN19QtDataVisualization14Bars3DRendererE@Qt_5 5.10.1
 _ZTSN19QtDataVisualization14QCustom3DLabelE@Qt_5 5.10.1
 _ZTSN19QtDataVisualization15Q3DInputHandlerE@Qt_5 5.10.1
 _ZTSN19QtDataVisualization15Q3DScenePrivateE@Qt_5 5.10.1
 _ZTSN19QtDataVisualization15Q3DThemePrivateE@Qt_5 5.10.1
 _ZTSN19QtDataVisualization15QAbstract3DAxisE@Qt_5 5.10.1
 _ZTSN19QtDataVisualization15QCategory3DAxisE@Qt_5 5.10.1
 _ZTSN19QtDataVisualization15QCustom3DVolumeE@Qt_5 5.10.1
 _ZTSN19QtDataVisualization16Bars3DControllerE@Qt_5 5.10.1
 _ZTSN19QtDataVisualization16QAbstract3DGraphE@Qt_5 5.10.1
 _ZTSN19QtDataVisualization16QScatter3DSeriesE@Qt_5 5.10.1
 _ZTSN19QtDataVisualization16QSurface3DSeriesE@Qt_5 5.10.1
 _ZTSN19QtDataVisualization17QAbstract3DSeriesE@Qt_5 5.10.1
 _ZTSN19QtDataVisualization17QScatterDataProxyE@Qt_5 5.10.1
 _ZTSN19QtDataVisualization17QSurfaceDataProxyE@Qt_5 5.10.1
 _ZTSN19QtDataVisualization17Scatter3DRendererE@Qt_5 5.10.1
 _ZTSN19QtDataVisualization17Surface3DRendererE@Qt_5 5.10.1
 _ZTSN19QtDataVisualization18QAbstractDataProxyE@Qt_5 5.10.1
 _ZTSN19QtDataVisualization19Scatter3DControllerE@Qt_5 5.10.1
 _ZTSN19QtDataVisualization19Surface3DControllerE@Qt_5 5.10.1
 _ZTSN19QtDataVisualization20Abstract3DControllerE@Qt_5 5.10.1
 _ZTSN19QtDataVisualization20QTouch3DInputHandlerE@Qt_5 5.10.1
 _ZTSN19QtDataVisualization21QValue3DAxisFormatterE@Qt_5 5.10.1
 _ZTSN19QtDataVisualization22QItemModelBarDataProxyE@Qt_5 5.10.1
 _ZTSN19QtDataVisualization23QAbstract3DInputHandlerE@Qt_5 5.10.1
 _ZTSN19QtDataVisualization24QLogValue3DAxisFormatterE@Qt_5 5.10.1
 _ZTSN19QtDataVisualization26QHeightMapSurfaceDataProxyE@Qt_5 5.10.1
 _ZTSN19QtDataVisualization26QItemModelScatterDataProxyE@Qt_5 5.10.1
 _ZTSN19QtDataVisualization26QItemModelSurfaceDataProxyE@Qt_5 5.10.1
 _ZTSN19QtDataVisualization7Q3DBarsE@Qt_5 5.10.1
 _ZTSN19QtDataVisualization8Q3DLightE@Qt_5 5.10.1
 _ZTSN19QtDataVisualization8Q3DSceneE@Qt_5 5.10.1
 _ZTSN19QtDataVisualization8Q3DThemeE@Qt_5 5.10.1
 _ZTSN19QtDataVisualization9Q3DCameraE@Qt_5 5.10.1
 _ZTSN19QtDataVisualization9Q3DObjectE@Qt_5 5.10.1
 _ZTVN19QtDataVisualization10Q3DScatterE@Qt_5 5.10.1
 _ZTVN19QtDataVisualization10Q3DSurfaceE@Qt_5 5.10.1
 _ZTVN19QtDataVisualization12QBar3DSeriesE@Qt_5 5.10.1
 _ZTVN19QtDataVisualization12QValue3DAxisE@Qt_5 5.10.1
 _ZTVN19QtDataVisualization13QBarDataProxyE@Qt_5 5.10.1
 _ZTVN19QtDataVisualization13QCustom3DItemE@Qt_5 5.10.1
 _ZTVN19QtDataVisualization14Bars3DRendererE@Qt_5 5.10.1
 _ZTVN19QtDataVisualization14QCustom3DLabelE@Qt_5 5.10.1
 _ZTVN19QtDataVisualization15Q3DInputHandlerE@Qt_5 5.10.1
 _ZTVN19QtDataVisualization15Q3DScenePrivateE@Qt_5 5.10.1
 _ZTVN19QtDataVisualization15Q3DThemePrivateE@Qt_5 5.10.1
 _ZTVN19QtDataVisualization15QAbstract3DAxisE@Qt_5 5.10.1
 _ZTVN19QtDataVisualization15QCategory3DAxisE@Qt_5 5.10.1
 _ZTVN19QtDataVisualization15QCustom3DVolumeE@Qt_5 5.10.1
 _ZTVN19QtDataVisualization16Bars3DControllerE@Qt_5 5.10.1
 _ZTVN19QtDataVisualization16QAbstract3DGraphE@Qt_5 5.10.1
 _ZTVN19QtDataVisualization16QScatter3DSeriesE@Qt_5 5.10.1
 _ZTVN19QtDataVisualization16QSurface3DSeriesE@Qt_5 5.10.1
 _ZTVN19QtDataVisualization17QAbstract3DSeriesE@Qt_5 5.10.1
 _ZTVN19QtDataVisualization17QScatterDataProxyE@Qt_5 5.10.1
 _ZTVN19QtDataVisualization17QSurfaceDataProxyE@Qt_5 5.10.1
 _ZTVN19QtDataVisualization17Scatter3DRendererE@Qt_5 5.10.1
 _ZTVN19QtDataVisualization17Surface3DRendererE@Qt_5 5.10.1
 _ZTVN19QtDataVisualization18QAbstractDataProxyE@Qt_5 5.10.1
 _ZTVN19QtDataVisualization19Scatter3DControllerE@Qt_5 5.10.1
 _ZTVN19QtDataVisualization19Surface3DControllerE@Qt_5 5.10.1
 _ZTVN19QtDataVisualization20Abstract3DControllerE@Qt_5 5.10.1
 _ZTVN19QtDataVisualization20QTouch3DInputHandlerE@Qt_5 5.10.1
 _ZTVN19QtDataVisualization21QValue3DAxisFormatterE@Qt_5 5.10.1
 _ZTVN19QtDataVisualization22QItemModelBarDataProxyE@Qt_5 5.10.1
 _ZTVN19QtDataVisualization23QAbstract3DInputHandlerE@Qt_5 5.10.1
 _ZTVN19QtDataVisualization24QLogValue3DAxisFormatterE@Qt_5 5.10.1
 _ZTVN19QtDataVisualization26QHeightMapSurfaceDataProxyE@Qt_5 5.10.1
 _ZTVN19QtDataVisualization26QItemModelScatterDataProxyE@Qt_5 5.10.1
 _ZTVN19QtDataVisualization26QItemModelSurfaceDataProxyE@Qt_5 5.10.1
 _ZTVN19QtDataVisualization7Q3DBarsE@Qt_5 5.10.1
 _ZTVN19QtDataVisualization8Q3DLightE@Qt_5 5.10.1
 _ZTVN19QtDataVisualization8Q3DSceneE@Qt_5 5.10.1
 _ZTVN19QtDataVisualization8Q3DThemeE@Qt_5 5.10.1
 _ZTVN19QtDataVisualization9Q3DCameraE@Qt_5 5.10.1
 _ZTVN19QtDataVisualization9Q3DObjectE@Qt_5 5.10.1
 (c++)"non-virtual thunk to QtDataVisualization::Q3DBars::~Q3DBars()@Qt_5" 5.10.1
 (c++)"non-virtual thunk to QtDataVisualization::Q3DScatter::~Q3DScatter()@Qt_5" 5.10.1
 (c++)"non-virtual thunk to QtDataVisualization::Q3DSurface::~Q3DSurface()@Qt_5" 5.10.1
 (c++)"non-virtual thunk to QtDataVisualization::QAbstract3DGraph::~QAbstract3DGraph()@Qt_5" 5.10.1
